(ioptparse
Values
p1
(dp2
S'resultdir'
p3
V/Users/kasper/Desktop/sapserver2/static/user_projects/example_Y7IQXN/html
p4
sS'nofillin'
p5
I00
sS'hostfile'
p6
I00
sS'quickcompile'
p7
I00
sS'onlinehelp'
p8
I00
sS'subspecieslevel'
p9
I00
sS'statsdir'
p10
V/Users/kasper/Desktop/sapserver2/static/user_projects/example_Y7IQXN/stats
p11
sS'nocopycache'
p12
I00
sS'besthits'
p13
I30
sS'warnongaps'
p14
I00
sS'alignmentcache'
p15
V/Users/kasper/Desktop/sapserver2/static/user_projects/example_Y7IQXN/alignmentcache
p16
sS'_stats'
p17
I00
sS'nolowcomplexfilter'
p18
I00
sS'sge'
p19
I0
sS'fillintomatch'
p20
I00
sS'alignment'
p21
VClustalw2
p22
sS'cleanlook'
p23
I00
sS'project'
p24
V/Users/kasper/Desktop/sapserver2/static/user_projects/example_Y7IQXN
p25
sS'forceidentity'
p26
F0.90000000000000002
sS'harddiversity'
p27
I00
sS'inputformat'
p28
Vfasta
p29
sS'blastwordsize'
p30
I00
sS'minidentity'
p31
F0.94999999999999996
sS'TESTING'
p32
I00
sS'datadir'
p33
V/Users/kasper/Desktop/sapserver2/static/user_projects/example_Y7IQXN/data
p34
sS'ppcutoff'
p35
(lp36
I95
asS'_sample'
p37
I00
sS'individuals'
p38
I1
sS'minimaltaxonomy'
p39
I5
sS'nrsignificant'
p40
I5
sS'phyla'
p41
I2
sS'bayesfactors'
p42
I00
sS'email'
p43
S'kaspermunch@birc.au.dk'
p44
sS'limitquery'
p45
Vall[FILT]
p46
sS'alignmentoption'
p47
(lp48
V-gapopen=50
p49
asS'families'
p50
I6
sS'homologcache'
p51
V/Users/kasper/Desktop/sapserver2/static/user_projects/example_Y7IQXN/homologcache
p52
sS'prunelevel'
p53
I0
sS'assignment'
p54
VBarcoder
p55
sS'genera'
p56
I10
sS'significance'
p57
F0.10000000000000001
sS'printoptions'
p58
I00
sS'dbcache'
p59
V/Users/kasper/Desktop/sapserver2/static/user_projects/example_Y7IQXN/dbcache
p60
sS'treescache'
p61
V/Users/kasper/Desktop/sapserver2/static/user_projects/example_Y7IQXN/treescache
p62
sS'alignmentlimit'
p63
I50
sS'forceexcludegilist'
p64
(lp65
sS'flanks'
p66
I0
sS'viewresults'
p67
I00
sS'installdependencies'
p68
I00
sS'notruncate'
p69
I00
sS'diffs'
p70
I00
sS'_align'
p71
I00
sS'ONEMISSING'
p72
I00
sS'maxblasthits'
p73
I200
sS'_clustalw'
p74
I00
sS'minsignificance'
p75
F10
sS'svg'
p76
I00
sS'mb'
p77
I00
sS'forceincludegilist'
p78
(lp79
sS'compile'
p80
I00
sS'forceincludefile'
p81
NsS'blastcache'
p82
V/Users/kasper/Desktop/sapserver2/static/user_projects/example_Y7IQXN/blastcache
p83
sS'classes'
p84
I3
sS'database'
p85
VGenBank
p86
sS'fillinall'
p87
I00
sS'treestatscache'
p88
V/Users/kasper/Desktop/sapserver2/static/user_projects/example_Y7IQXN/treestatscache
p89
sS'orders'
p90
I5
sS'relbitscore'
p91
F0.5
sb.