(iSAP.Taxonomy
TaxonomySummary
p1
(dp2
S'count'
p3
I1000
sS'pruneList'
p4
(lp5
sS'ingroupCount'
p6
I0
sS'significanceSummary'
p7
I00
sS'level'
p8
S'superkingdom'
p9
sS'pruneLevel'
p10
I0
sS'dbid'
p11
NsS'prior'
p12
NsS'dict'
p13
(dp14
S'Eukaryota'
p15
(iSAP.Taxonomy
TaxonomySummary
p16
(dp17
g3
I1000
sg4
(lp18
sg6
I0
sg7
I00
sg8
S'kingdom'
p19
sg10
I0
sg11
S'2759'
p20
sg12
Nsg13
(dp21
S'Metazoa'
p22
(iSAP.Taxonomy
TaxonomySummary
p23
(dp24
g3
I1000
sg4
(lp25
sg6
I0
sg7
I00
sg8
S'phylum'
p26
sg10
I0
sg11
S'33208'
p27
sg12
Nsg13
(dp28
S'Chordata'
p29
(iSAP.Taxonomy
TaxonomySummary
p30
(dp31
g3
I1000
sg4
(lp32
sg6
I0
sg7
I00
sg8
S'subphylum'
p33
sg10
I0
sg11
S'7711'
p34
sg12
Nsg13
(dp35
S'Craniata'
p36
(iSAP.Taxonomy
TaxonomySummary
p37
(dp38
g3
I1000
sg4
(lp39
sg6
I0
sg7
I00
sg8
S'class'
p40
sg10
I0
sg11
S'89593'
p41
sg12
Nsg13
(dp42
S'Mammalia'
p43
(iSAP.Taxonomy
TaxonomySummary
p44
(dp45
g3
I1000
sg4
(lp46
sg6
I0
sg7
I00
sg8
S'superorder'
p47
sg10
I0
sg11
S'40674'
p48
sg12
Nsg13
(dp49
S'Laurasiatheria'
p50
(iSAP.Taxonomy
TaxonomySummary
p51
(dp52
g3
I1000
sg4
(lp53
sg6
I0
sg7
I00
sg8
S'order'
p54
sg10
I0
sg11
S'314145'
p55
sg12
Nsg13
(dp56
S'Carnivora'
p57
(iSAP.Taxonomy
TaxonomySummary
p58
(dp59
g3
I1000
sg4
(lp60
sg6
I0
sg7
I00
sg8
S'suborder'
p61
sg10
I0
sg11
S'33554'
p62
sg12
Nsg13
(dp63
S'Feliformia'
p64
(iSAP.Taxonomy
TaxonomySummary
p65
(dp66
g3
I1000
sg4
(lp67
sg6
I0
sg7
I00
sg8
S'family'
p68
sg10
I0
sg11
S'379583'
p69
sg12
Nsg13
(dp70
S'Felidae'
p71
(iSAP.Taxonomy
TaxonomySummary
p72
(dp73
g3
I1000
sg4
(lp74
sg6
I0
sg7
I00
sg8
S'subfamily'
p75
sg10
I0
sg11
S'9681'
p76
sg12
Nsg13
(dp77
S'Acinonychinae'
p78
(iSAP.Taxonomy
TaxonomySummary
p79
(dp80
g3
I1000
sg4
(lp81
sg6
I0
sg7
I00
sg8
S'genus'
p82
sg10
I0
sg11
S'338151'
p83
sg12
Nsg13
(dp84
S'Acinonyx'
p85
(iSAP.Taxonomy
TaxonomySummary
p86
(dp87
g3
I1000
sg4
(lp88
sg6
I0
sg7
I00
sg8
S'species'
p89
sg10
I0
sg11
S'32535'
p90
sg12
Nsg13
(dp91
S'Acinonyx jubatus'
p92
(iSAP.Taxonomy
TaxonomySummary
p93
(dp94
g3
I1000
sg4
(lp95
sg6
I0
sg7
I00
sg8
Nsg10
I0
sg11
S'32536'
p96
sg12
Nsg13
(dp97
sS'definingTaxonMonophyleticCount'
p98
I1000
sS'priorSummary'
p99
(iSAP.Taxonomy
TaxonomySummary
p100
(dp101
g3
I16
sg4
(lp102
sg6
I0
sg7
I00
sg8
S'superkingdom'
p103
sg10
I0
sg11
Nsg12
Nsg13
(dp104
S'Eukaryota'
p105
(iSAP.Taxonomy
TaxonomySummary
p106
(dp107
g3
I16
sg4
(lp108
sg6
I0
sg7
I00
sg8
S'kingdom'
p109
sg10
I0
sg11
S'2759'
p110
sg12
Nsg13
(dp111
S'Metazoa'
p112
(iSAP.Taxonomy
TaxonomySummary
p113
(dp114
g3
I16
sg4
(lp115
sg6
I0
sg7
I00
sg8
S'phylum'
p116
sg10
I0
sg11
S'33208'
p117
sg12
Nsg13
(dp118
S'Chordata'
p119
(iSAP.Taxonomy
TaxonomySummary
p120
(dp121
g3
I16
sg4
(lp122
sg6
I0
sg7
I00
sg8
S'subphylum'
p123
sg10
I0
sg11
S'7711'
p124
sg12
Nsg13
(dp125
S'Craniata'
p126
(iSAP.Taxonomy
TaxonomySummary
p127
(dp128
g3
I16
sg4
(lp129
sg6
I0
sg7
I00
sg8
S'class'
p130
sg10
I0
sg11
S'89593'
p131
sg12
Nsg13
(dp132
S'Mammalia'
p133
(iSAP.Taxonomy
TaxonomySummary
p134
(dp135
g3
I16
sg4
(lp136
sg6
I0
sg7
I00
sg8
S'superorder'
p137
sg10
I0
sg11
S'40674'
p138
sg12
Nsg13
(dp139
S'Laurasiatheria'
p140
(iSAP.Taxonomy
TaxonomySummary
p141
(dp142
g3
I16
sg4
(lp143
sg6
I0
sg7
I00
sg8
S'order'
p144
sg10
I0
sg11
S'314145'
p145
sg12
Nsg13
(dp146
S'Chiroptera'
p147
(iSAP.Taxonomy
TaxonomySummary
p148
(dp149
g3
I1
sg4
(lp150
sg6
I0
sg7
I00
sg8
S'suborder'
p151
sg10
I0
sg11
S'9397'
p152
sg12
Nsg13
(dp153
S'Microchiroptera'
p154
(iSAP.Taxonomy
TaxonomySummary
p155
(dp156
g3
I1
sg4
(lp157
sg6
I0
sg7
I00
sg8
S'family'
p158
sg10
I0
sg11
S'30560'
p159
sg12
Nsg13
(dp160
S'Vespertilionidae'
p161
(iSAP.Taxonomy
TaxonomySummary
p162
(dp163
g3
I1
sg4
(lp164
sg6
I0
sg7
I00
sg8
S'genus'
p165
sg10
I0
sg11
S'9431'
p166
sg12
Nsg13
(dp167
S'Myotis'
p168
(iSAP.Taxonomy
TaxonomySummary
p169
(dp170
g3
I1
sg4
(lp171
sg6
I0
sg7
I00
sg8
S'species'
p172
sg10
I0
sg11
S'9434'
p173
sg12
Nsg13
(dp174
S'Myotis muricola'
p175
(iSAP.Taxonomy
TaxonomySummary
p176
(dp177
g3
I1
sg4
(lp178
sg6
I0
sg7
I00
sg8
Nsg10
I0
sg11
S'159330'
p179
sg12
Nsg13
(dp180
sg98
I0
sg99
NsS'monophyleticCount'
p181
I0
sS'bayesFactors'
p182
I00
sbssg98
I0
sg99
Nsg181
I0
sg182
I00
sbssg98
I0
sg99
Nsg181
I0
sg182
I00
sbssg98
I0
sg99
Nsg181
I0
sg182
I00
sbssg98
I0
sg99
Nsg181
I0
sg182
I00
sbsS'Carnivora'
p183
(iSAP.Taxonomy
TaxonomySummary
p184
(dp185
g3
I15
sg4
(lp186
sg6
I0
sg7
I00
sg8
S'suborder'
p187
sg10
I0
sg11
S'33554'
p188
sg12
Nsg13
(dp189
S'Feliformia'
p190
(iSAP.Taxonomy
TaxonomySummary
p191
(dp192
g3
I15
sg4
(lp193
sg6
I0
sg7
I00
sg8
S'family'
p194
sg10
I0
sg11
S'379583'
p195
sg12
Nsg13
(dp196
S'Felidae'
p197
(iSAP.Taxonomy
TaxonomySummary
p198
(dp199
g3
I15
sg4
(lp200
sg6
I0
sg7
I00
sg8
S'subfamily'
p201
sg10
I0
sg11
S'9681'
p202
sg12
Nsg13
(dp203
S'Felinae'
p204
(iSAP.Taxonomy
TaxonomySummary
p205
(dp206
g3
I12
sg4
(lp207
sg6
I0
sg7
I00
sg8
S'genus'
p208
sg10
I0
sg11
S'338152'
p209
sg12
Nsg13
(dp210
S'Felis'
p211
(iSAP.Taxonomy
TaxonomySummary
p212
(dp213
g3
I2
sg4
(lp214
sg6
I0
sg7
I00
sg8
S'species'
p215
sg10
I0
sg11
S'9682'
p216
sg12
Nsg13
(dp217
S'Felis catus'
p218
(iSAP.Taxonomy
TaxonomySummary
p219
(dp220
g3
I1
sg4
(lp221
sg6
I0
sg7
I00
sg8
Nsg10
I0
sg11
S'9685'
p222
sg12
Nsg13
(dp223
sg98
I0
sg99
Nsg181
I0
sg182
I00
sbsS'Felis silvestris'
p224
(iSAP.Taxonomy
TaxonomySummary
p225
(dp226
g3
I1
sg4
(lp227
sg6
I0
sg7
I00
sg8
Nsg10
I0
sg11
S'9683'
p228
sg12
Nsg13
(dp229
sg98
I0
sg99
Nsg181
I0
sg182
I00
sbssg98
I0
sg99
Nsg181
I0
sg182
I00
sbsS'Puma'
p230
(iSAP.Taxonomy
TaxonomySummary
p231
(dp232
g3
I1
sg4
(lp233
sg6
I0
sg7
I00
sg8
S'species'
p234
sg10
I0
sg11
S'146712'
p235
sg12
Nsg13
(dp236
S'Puma concolor'
p237
(iSAP.Taxonomy
TaxonomySummary
p238
(dp239
g3
I1
sg4
(lp240
sg6
I0
sg7
I00
sg8
Nsg10
I0
sg11
S'9696'
p241
sg12
Nsg13
(dp242
sg98
I0
sg99
Nsg181
I0
sg182
I00
sbssg98
I0
sg99
Nsg181
I0
sg182
I00
sbsS'Profelis'
p243
(iSAP.Taxonomy
TaxonomySummary
p244
(dp245
g3
I1
sg4
(lp246
sg6
I0
sg7
I00
sg8
S'species'
p247
sg10
I0
sg11
S'61411'
p248
sg12
Nsg13
(dp249
S'Profelis aurata'
p250
(iSAP.Taxonomy
TaxonomySummary
p251
(dp252
g3
I1
sg4
(lp253
sg6
I0
sg7
I00
sg8
Nsg10
I0
sg11
S'61412'
p254
sg12
Nsg13
(dp255
sg98
I0
sg99
Nsg181
I0
sg182
I00
sbssg98
I0
sg99
Nsg181
I0
sg182
I00
sbsS'Catopuma'
p256
(iSAP.Taxonomy
TaxonomySummary
p257
(dp258
g3
I1
sg4
(lp259
sg6
I0
sg7
I00
sg8
S'species'
p260
sg10
I0
sg11
S'61453'
p261
sg12
Nsg13
(dp262
S'Catopuma temminckii'
p263
(iSAP.Taxonomy
TaxonomySummary
p264
(dp265
g3
I1
sg4
(lp266
sg6
I0
sg7
I00
sg8
Nsg10
I0
sg11
S'61455'
p267
sg12
Nsg13
(dp268
sg98
I0
sg99
Nsg181
I0
sg182
I00
sbssg98
I0
sg99
Nsg181
I0
sg182
I00
sbsS'Lynx'
p269
(iSAP.Taxonomy
TaxonomySummary
p270
(dp271
g3
I3
sg4
(lp272
sg6
I0
sg7
I00
sg8
S'species'
p273
sg10
I0
sg11
S'13124'
p274
sg12
Nsg13
(dp275
S'Lynx canadensis'
p276
(iSAP.Taxonomy
TaxonomySummary
p277
(dp278
g3
I1
sg4
(lp279
sg6
I0
sg7
I00
sg8
Nsg10
I0
sg11
S'61383'
p280
sg12
Nsg13
(dp281
sg98
I0
sg99
Nsg181
I0
sg182
I00
sbsS'Lynx rufus'
p282
(iSAP.Taxonomy
TaxonomySummary
p283
(dp284
g3
I1
sg4
(lp285
sg6
I0
sg7
I00
sg8
Nsg10
I0
sg11
S'61384'
p286
sg12
Nsg13
(dp287
sg98
I0
sg99
Nsg181
I0
sg182
I00
sbsS'Lynx lynx'
p288
(iSAP.Taxonomy
TaxonomySummary
p289
(dp290
g3
I1
sg4
(lp291
sg6
I0
sg7
I00
sg8
Nsg10
I0
sg11
S'13125'
p292
sg12
Nsg13
(dp293
sg98
I0
sg99
Nsg181
I0
sg182
I00
sbssg98
I0
sg99
Nsg181
I0
sg182
I00
sbsS'Caracal'
p294
(iSAP.Taxonomy
TaxonomySummary
p295
(dp296
g3
I1
sg4
(lp297
sg6
I0
sg7
I00
sg8
S'species'
p298
sg10
I0
sg11
S'61393'
p299
sg12
Nsg13
(dp300
S'Caracal caracal'
p301
(iSAP.Taxonomy
TaxonomySummary
p302
(dp303
g3
I1
sg4
(lp304
sg6
I0
sg7
I00
sg8
Nsg10
I0
sg11
S'61394'
p305
sg12
Nsg13
(dp306
sg98
I0
sg99
Nsg181
I0
sg182
I00
sbssg98
I0
sg99
Nsg181
I0
sg182
I00
sbsS'Prionailurus'
p307
(iSAP.Taxonomy
TaxonomySummary
p308
(dp309
g3
I3
sg4
(lp310
sg6
I0
sg7
I00
sg8
S'species'
p311
sg10
I0
sg11
S'37028'
p312
sg12
Nsg13
(dp313
S'Prionailurus bengalensis'
p314
(iSAP.Taxonomy
TaxonomySummary
p315
(dp316
g3
I1
sg4
(lp317
sg6
I0
sg7
I00
sg8
Nsg10
I0
sg11
S'37029'
p318
sg12
Nsg13
(dp319
sg98
I0
sg99
Nsg181
I0
sg182
I00
sbsS'Prionailurus planiceps'
p320
(iSAP.Taxonomy
TaxonomySummary
p321
(dp322
g3
I1
sg4
(lp323
sg6
I0
sg7
I00
sg8
Nsg10
I0
sg11
S'61403'
p324
sg12
Nsg13
(dp325
sg98
I0
sg99
Nsg181
I0
sg182
I00
sbsS'Prionailurus viverrinus'
p326
(iSAP.Taxonomy
TaxonomySummary
p327
(dp328
g3
I1
sg4
(lp329
sg6
I0
sg7
I00
sg8
Nsg10
I0
sg11
S'61388'
p330
sg12
Nsg13
(dp331
sg98
I0
sg99
Nsg181
I0
sg182
I00
sbssg98
I0
sg99
Nsg181
I0
sg182
I00
sbssg98
I0
sg99
Nsg181
I0
sg182
I00
sbsS'Pantherinae'
p332
(iSAP.Taxonomy
TaxonomySummary
p333
(dp334
g3
I2
sg4
(lp335
sg6
I0
sg7
I00
sg8
S'genus'
p336
sg10
I0
sg11
S'338153'
p337
sg12
Nsg13
(dp338
S'Panthera'
p339
(iSAP.Taxonomy
TaxonomySummary
p340
(dp341
g3
I1
sg4
(lp342
sg6
I0
sg7
I00
sg8
S'species'
p343
sg10
I0
sg11
S'9688'
p344
sg12
Nsg13
(dp345
S'Panthera tigris'
p346
(iSAP.Taxonomy
TaxonomySummary
p347
(dp348
g3
I1
sg4
(lp349
sg6
I0
sg7
I00
sg8
Nsg10
I0
sg11
S'9694'
p350
sg12
Nsg13
(dp351
sg98
I0
sg99
Nsg181
I0
sg182
I00
sbssg98
I0
sg99
Nsg181
I0
sg182
I00
sbsS'Neofelis'
p352
(iSAP.Taxonomy
TaxonomySummary
p353
(dp354
g3
I1
sg4
(lp355
sg6
I0
sg7
I00
sg8
S'species'
p356
sg10
I0
sg11
S'61451'
p357
sg12
Nsg13
(dp358
S'Neofelis nebulosa'
p359
(iSAP.Taxonomy
TaxonomySummary
p360
(dp361
g3
I1
sg4
(lp362
sg6
I0
sg7
I00
sg8
Nsg10
I0
sg11
S'61452'
p363
sg12
Nsg13
(dp364
sg98
I0
sg99
Nsg181
I0
sg182
I00
sbssg98
I0
sg99
Nsg181
I0
sg182
I00
sbssg98
I0
sg99
Nsg181
I0
sg182
I00
sbsg78
(iSAP.Taxonomy
TaxonomySummary
p365
(dp366
g3
I1
sg4
(lp367
sg6
I0
sg7
I00
sg8
g82
sg10
I0
sg11
g83
sg12
Nsg13
(dp368
g85
(iSAP.Taxonomy
TaxonomySummary
p369
(dp370
g3
I1
sg4
(lp371
sg6
I0
sg7
I00
sg8
g89
sg10
I0
sg11
g90
sg12
Nsg13
(dp372
g92
(iSAP.Taxonomy
TaxonomySummary
p373
(dp374
g3
I1
sg4
(lp375
sg6
I0
sg7
I00
sg8
Nsg10
I0
sg11
g96
sg12
Nsg13
(dp376
sg98
I0
sg99
Nsg181
I0
sg182
I00
sbssg98
I0
sg99
Nsg181
I0
sg182
I00
sbssg98
I0
sg99
Nsg181
I0
sg182
I00
sbssg98
I0
sg99
Nsg181
I0
sg182
I00
sbssg98
I0
sg99
Nsg181
I0
sg182
I00
sbssg98
I0
sg99
Nsg181
I0
sg182
I00
sbssg98
I0
sg99
Nsg181
I0
sg182
I00
sbssg98
I0
sg99
Nsg181
I0
sg182
I00
sbssg98
I0
sg99
Nsg181
I0
sg182
I00
sbssg98
I0
sg99
Nsg181
I0
sg182
I00
sbssg98
I0
sg99
Nsg181
I0
sg182
I00
sbssg98
I0
sg99
Nsg181
I0
sg182
I00
sbssg98
I0
sg99
Nsg181
I0
sg182
I00
sbsg181
I0
sg182
I00
sbssg98
I1000
sg99
g100
sg181
I0
sg182
I00
sbssg98
I1000
sg99
g100
sg181
I0
sg182
I00
sbssg98
I1000
sg99
g100
sg181
I0
sg182
I00
sbssg98
I1000
sg99
g100
sg181
I0
sg182
I00
sbssg98
I1000
sg99
g100
sg181
I0
sg182
I00
sbssg98
I1000
sg99
g100
sg181
I0
sg182
I00
sbssg98
I1000
sg99
g100
sg181
I0
sg182
I00
sbssg98
I1000
sg99
g100
sg181
I0
sg182
I00
sbssg98
I1000
sg99
g100
sg181
I0
sg182
I00
sbssg98
I1000
sg99
g100
sg181
I0
sg182
I00
sbssg98
I1000
sg99
g100
sg181
I0
sg182
I00
sbssg98
I1000
sg99
g100
sg181
I0
sg182
I00
sb.