(iSAP.Taxonomy
TaxonomySummary
p1
(dp2
S'count'
p3
I1000
sS'pruneList'
p4
(lp5
sS'ingroupCount'
p6
I0
sS'significanceSummary'
p7
I00
sS'level'
p8
S'superkingdom'
p9
sS'pruneLevel'
p10
I0
sS'dbid'
p11
NsS'prior'
p12
NsS'dict'
p13
(dp14
S'Eukaryota'
p15
(iSAP.Taxonomy
TaxonomySummary
p16
(dp17
g3
I1000
sg4
(lp18
sg6
I0
sg7
I00
sg8
S'kingdom'
p19
sg10
I0
sg11
S'2759'
p20
sg12
Nsg13
(dp21
S'Metazoa'
p22
(iSAP.Taxonomy
TaxonomySummary
p23
(dp24
g3
I1000
sg4
(lp25
sg6
I0
sg7
I00
sg8
S'phylum'
p26
sg10
I0
sg11
S'33208'
p27
sg12
Nsg13
(dp28
S'Chordata'
p29
(iSAP.Taxonomy
TaxonomySummary
p30
(dp31
g3
I1000
sg4
(lp32
sg6
I0
sg7
I00
sg8
S'subphylum'
p33
sg10
I0
sg11
S'7711'
p34
sg12
Nsg13
(dp35
S'Craniata'
p36
(iSAP.Taxonomy
TaxonomySummary
p37
(dp38
g3
I1000
sg4
(lp39
sg6
I0
sg7
I00
sg8
S'class'
p40
sg10
I0
sg11
S'89593'
p41
sg12
Nsg13
(dp42
S'Mammalia'
p43
(iSAP.Taxonomy
TaxonomySummary
p44
(dp45
g3
I1000
sg4
(lp46
sg6
I0
sg7
I00
sg8
S'superorder'
p47
sg10
I0
sg11
S'40674'
p48
sg12
Nsg13
(dp49
S'Laurasiatheria'
p50
(iSAP.Taxonomy
TaxonomySummary
p51
(dp52
g3
I1000
sg4
(lp53
sg6
I0
sg7
I00
sg8
S'order'
p54
sg10
I0
sg11
S'314145'
p55
sg12
Nsg13
(dp56
S'Carnivora'
p57
(iSAP.Taxonomy
TaxonomySummary
p58
(dp59
g3
I1000
sg4
(lp60
sg6
I0
sg7
I00
sg8
S'suborder'
p61
sg10
I0
sg11
S'33554'
p62
sg12
Nsg13
(dp63
S'Feliformia'
p64
(iSAP.Taxonomy
TaxonomySummary
p65
(dp66
g3
I1000
sg4
(lp67
sg6
I0
sg7
I00
sg8
S'family'
p68
sg10
I0
sg11
S'379583'
p69
sg12
Nsg13
(dp70
S'Felidae'
p71
(iSAP.Taxonomy
TaxonomySummary
p72
(dp73
g3
I1000
sg4
(lp74
sg6
I0
sg7
I00
sg8
S'subfamily'
p75
sg10
I0
sg11
S'9681'
p76
sg12
Nsg13
(dp77
S'Pantherinae'
p78
(iSAP.Taxonomy
TaxonomySummary
p79
(dp80
g3
I1000
sg4
(lp81
sg6
I0
sg7
I00
sg8
S'genus'
p82
sg10
I0
sg11
S'338153'
p83
sg12
Nsg13
(dp84
S'Panthera'
p85
(iSAP.Taxonomy
TaxonomySummary
p86
(dp87
g3
I1000
sg4
(lp88
sg6
I0
sg7
I00
sg8
S'species'
p89
sg10
I0
sg11
S'9688'
p90
sg12
Nsg13
(dp91
S'Panthera leo'
p92
(iSAP.Taxonomy
TaxonomySummary
p93
(dp94
g3
I1000
sg4
(lp95
sg6
I0
sg7
I00
sg8
Nsg10
I0
sg11
S'9689'
p96
sg12
Nsg13
(dp97
sS'definingTaxonMonophyleticCount'
p98
I1000
sS'priorSummary'
p99
(iSAP.Taxonomy
TaxonomySummary
p100
(dp101
g3
I20
sg4
(lp102
sg6
I0
sg7
I00
sg8
S'superkingdom'
p103
sg10
I0
sg11
Nsg12
Nsg13
(dp104
S'Eukaryota'
p105
(iSAP.Taxonomy
TaxonomySummary
p106
(dp107
g3
I20
sg4
(lp108
sg6
I0
sg7
I00
sg8
S'kingdom'
p109
sg10
I0
sg11
S'2759'
p110
sg12
Nsg13
(dp111
S'Metazoa'
p112
(iSAP.Taxonomy
TaxonomySummary
p113
(dp114
g3
I20
sg4
(lp115
sg6
I0
sg7
I00
sg8
S'phylum'
p116
sg10
I0
sg11
S'33208'
p117
sg12
Nsg13
(dp118
S'Chordata'
p119
(iSAP.Taxonomy
TaxonomySummary
p120
(dp121
g3
I20
sg4
(lp122
sg6
I0
sg7
I00
sg8
S'subphylum'
p123
sg10
I0
sg11
S'7711'
p124
sg12
Nsg13
(dp125
S'Craniata'
p126
(iSAP.Taxonomy
TaxonomySummary
p127
(dp128
g3
I20
sg4
(lp129
sg6
I0
sg7
I00
sg8
S'class'
p130
sg10
I0
sg11
S'89593'
p131
sg12
Nsg13
(dp132
S'Mammalia'
p133
(iSAP.Taxonomy
TaxonomySummary
p134
(dp135
g3
I20
sg4
(lp136
sg6
I0
sg7
I00
sg8
S'superorder'
p137
sg10
I0
sg11
S'40674'
p138
sg12
Nsg13
(dp139
S'Laurasiatheria'
p140
(iSAP.Taxonomy
TaxonomySummary
p141
(dp142
g3
I20
sg4
(lp143
sg6
I0
sg7
I00
sg8
S'order'
p144
sg10
I0
sg11
S'314145'
p145
sg12
Nsg13
(dp146
S'Chiroptera'
p147
(iSAP.Taxonomy
TaxonomySummary
p148
(dp149
g3
I1
sg4
(lp150
sg6
I0
sg7
I00
sg8
S'suborder'
p151
sg10
I0
sg11
S'9397'
p152
sg12
Nsg13
(dp153
S'Microchiroptera'
p154
(iSAP.Taxonomy
TaxonomySummary
p155
(dp156
g3
I1
sg4
(lp157
sg6
I0
sg7
I00
sg8
S'family'
p158
sg10
I0
sg11
S'30560'
p159
sg12
Nsg13
(dp160
S'Molossidae'
p161
(iSAP.Taxonomy
TaxonomySummary
p162
(dp163
g3
I1
sg4
(lp164
sg6
I0
sg7
I00
sg8
S'genus'
p165
sg10
I0
sg11
S'9436'
p166
sg12
Nsg13
(dp167
S'Eumops'
p168
(iSAP.Taxonomy
TaxonomySummary
p169
(dp170
g3
I1
sg4
(lp171
sg6
I0
sg7
I00
sg8
S'species'
p172
sg10
I0
sg11
S'27618'
p173
sg12
Nsg13
(dp174
S'Eumops auripendulus'
p175
(iSAP.Taxonomy
TaxonomySummary
p176
(dp177
g3
I1
sg4
(lp178
sg6
I0
sg7
I00
sg8
Nsg10
I0
sg11
S'124747'
p179
sg12
Nsg13
(dp180
sg98
I0
sg99
NsS'monophyleticCount'
p181
I0
sS'bayesFactors'
p182
I00
sbssg98
I0
sg99
Nsg181
I0
sg182
I00
sbssg98
I0
sg99
Nsg181
I0
sg182
I00
sbssg98
I0
sg99
Nsg181
I0
sg182
I00
sbssg98
I0
sg99
Nsg181
I0
sg182
I00
sbsS'Carnivora'
p183
(iSAP.Taxonomy
TaxonomySummary
p184
(dp185
g3
I19
sg4
(lp186
sg6
I0
sg7
I00
sg8
S'suborder'
p187
sg10
I0
sg11
S'33554'
p188
sg12
Nsg13
(dp189
S'Feliformia'
p190
(iSAP.Taxonomy
TaxonomySummary
p191
(dp192
g3
I19
sg4
(lp193
sg6
I0
sg7
I00
sg8
S'family'
p194
sg10
I0
sg11
S'379583'
p195
sg12
Nsg13
(dp196
S'Felidae'
p197
(iSAP.Taxonomy
TaxonomySummary
p198
(dp199
g3
I19
sg4
(lp200
sg6
I0
sg7
I00
sg8
S'subfamily'
p201
sg10
I0
sg11
S'9681'
p202
sg12
Nsg13
(dp203
S'Felinae'
p204
(iSAP.Taxonomy
TaxonomySummary
p205
(dp206
g3
I13
sg4
(lp207
sg6
I0
sg7
I00
sg8
S'genus'
p208
sg10
I0
sg11
S'338152'
p209
sg12
Nsg13
(dp210
S'Felis'
p211
(iSAP.Taxonomy
TaxonomySummary
p212
(dp213
g3
I3
sg4
(lp214
sg6
I0
sg7
I00
sg8
S'species'
p215
sg10
I0
sg11
S'9682'
p216
sg12
Nsg13
(dp217
S'Felis chaus'
p218
(iSAP.Taxonomy
TaxonomySummary
p219
(dp220
g3
I1
sg4
(lp221
sg6
I0
sg7
I00
sg8
Nsg10
I0
sg11
S'61376'
p222
sg12
Nsg13
(dp223
sg98
I0
sg99
Nsg181
I0
sg182
I00
sbsS'Felis catus'
p224
(iSAP.Taxonomy
TaxonomySummary
p225
(dp226
g3
I1
sg4
(lp227
sg6
I0
sg7
I00
sg8
Nsg10
I0
sg11
S'9685'
p228
sg12
Nsg13
(dp229
sg98
I0
sg99
Nsg181
I0
sg182
I00
sbsS'Felis silvestris'
p230
(iSAP.Taxonomy
TaxonomySummary
p231
(dp232
g3
I1
sg4
(lp233
sg6
I0
sg7
I00
sg8
Nsg10
I0
sg11
S'9683'
p234
sg12
Nsg13
(dp235
sg98
I0
sg99
Nsg181
I0
sg182
I00
sbssg98
I0
sg99
Nsg181
I0
sg182
I00
sbsS'Leptailurus'
p236
(iSAP.Taxonomy
TaxonomySummary
p237
(dp238
g3
I1
sg4
(lp239
sg6
I0
sg7
I00
sg8
S'species'
p240
sg10
I0
sg11
S'61404'
p241
sg12
Nsg13
(dp242
S'Leptailurus serval'
p243
(iSAP.Taxonomy
TaxonomySummary
p244
(dp245
g3
I1
sg4
(lp246
sg6
I0
sg7
I00
sg8
Nsg10
I0
sg11
S'61405'
p247
sg12
Nsg13
(dp248
sg98
I0
sg99
Nsg181
I0
sg182
I00
sbssg98
I0
sg99
Nsg181
I0
sg182
I00
sbsS'Profelis'
p249
(iSAP.Taxonomy
TaxonomySummary
p250
(dp251
g3
I1
sg4
(lp252
sg6
I0
sg7
I00
sg8
S'species'
p253
sg10
I0
sg11
S'61411'
p254
sg12
Nsg13
(dp255
S'Profelis aurata'
p256
(iSAP.Taxonomy
TaxonomySummary
p257
(dp258
g3
I1
sg4
(lp259
sg6
I0
sg7
I00
sg8
Nsg10
I0
sg11
S'61412'
p260
sg12
Nsg13
(dp261
sg98
I0
sg99
Nsg181
I0
sg182
I00
sbssg98
I0
sg99
Nsg181
I0
sg182
I00
sbsS'Puma'
p262
(iSAP.Taxonomy
TaxonomySummary
p263
(dp264
g3
I1
sg4
(lp265
sg6
I0
sg7
I00
sg8
S'species'
p266
sg10
I0
sg11
S'146712'
p267
sg12
Nsg13
(dp268
S'Puma concolor'
p269
(iSAP.Taxonomy
TaxonomySummary
p270
(dp271
g3
I1
sg4
(lp272
sg6
I0
sg7
I00
sg8
Nsg10
I0
sg11
S'9696'
p273
sg12
Nsg13
(dp274
sg98
I0
sg99
Nsg181
I0
sg182
I00
sbssg98
I0
sg99
Nsg181
I0
sg182
I00
sbsS'Catopuma'
p275
(iSAP.Taxonomy
TaxonomySummary
p276
(dp277
g3
I1
sg4
(lp278
sg6
I0
sg7
I00
sg8
S'species'
p279
sg10
I0
sg11
S'61453'
p280
sg12
Nsg13
(dp281
S'Catopuma temminckii'
p282
(iSAP.Taxonomy
TaxonomySummary
p283
(dp284
g3
I1
sg4
(lp285
sg6
I0
sg7
I00
sg8
Nsg10
I0
sg11
S'61455'
p286
sg12
Nsg13
(dp287
sg98
I0
sg99
Nsg181
I0
sg182
I00
sbssg98
I0
sg99
Nsg181
I0
sg182
I00
sbsS'Lynx'
p288
(iSAP.Taxonomy
TaxonomySummary
p289
(dp290
g3
I3
sg4
(lp291
sg6
I0
sg7
I00
sg8
S'species'
p292
sg10
I0
sg11
S'13124'
p293
sg12
Nsg13
(dp294
S'Lynx canadensis'
p295
(iSAP.Taxonomy
TaxonomySummary
p296
(dp297
g3
I1
sg4
(lp298
sg6
I0
sg7
I00
sg8
Nsg10
I0
sg11
S'61383'
p299
sg12
Nsg13
(dp300
sg98
I0
sg99
Nsg181
I0
sg182
I00
sbsS'Lynx rufus'
p301
(iSAP.Taxonomy
TaxonomySummary
p302
(dp303
g3
I1
sg4
(lp304
sg6
I0
sg7
I00
sg8
Nsg10
I0
sg11
S'61384'
p305
sg12
Nsg13
(dp306
sg98
I0
sg99
Nsg181
I0
sg182
I00
sbsS'Lynx lynx'
p307
(iSAP.Taxonomy
TaxonomySummary
p308
(dp309
g3
I1
sg4
(lp310
sg6
I0
sg7
I00
sg8
Nsg10
I0
sg11
S'13125'
p311
sg12
Nsg13
(dp312
sg98
I0
sg99
Nsg181
I0
sg182
I00
sbssg98
I0
sg99
Nsg181
I0
sg182
I00
sbsS'Caracal'
p313
(iSAP.Taxonomy
TaxonomySummary
p314
(dp315
g3
I1
sg4
(lp316
sg6
I0
sg7
I00
sg8
S'species'
p317
sg10
I0
sg11
S'61393'
p318
sg12
Nsg13
(dp319
S'Caracal caracal'
p320
(iSAP.Taxonomy
TaxonomySummary
p321
(dp322
g3
I1
sg4
(lp323
sg6
I0
sg7
I00
sg8
Nsg10
I0
sg11
S'61394'
p324
sg12
Nsg13
(dp325
sg98
I0
sg99
Nsg181
I0
sg182
I00
sbssg98
I0
sg99
Nsg181
I0
sg182
I00
sbsS'Prionailurus'
p326
(iSAP.Taxonomy
TaxonomySummary
p327
(dp328
g3
I2
sg4
(lp329
sg6
I0
sg7
I00
sg8
S'species'
p330
sg10
I0
sg11
S'37028'
p331
sg12
Nsg13
(dp332
S'Prionailurus bengalensis'
p333
(iSAP.Taxonomy
TaxonomySummary
p334
(dp335
g3
I1
sg4
(lp336
sg6
I0
sg7
I00
sg8
Nsg10
I0
sg11
S'37029'
p337
sg12
Nsg13
(dp338
sg98
I0
sg99
Nsg181
I0
sg182
I00
sbsS'Prionailurus viverrinus'
p339
(iSAP.Taxonomy
TaxonomySummary
p340
(dp341
g3
I1
sg4
(lp342
sg6
I0
sg7
I00
sg8
Nsg10
I0
sg11
S'61388'
p343
sg12
Nsg13
(dp344
sg98
I0
sg99
Nsg181
I0
sg182
I00
sbssg98
I0
sg99
Nsg181
I0
sg182
I00
sbssg98
I0
sg99
Nsg181
I0
sg182
I00
sbsS'Pantherinae'
p345
(iSAP.Taxonomy
TaxonomySummary
p346
(dp347
g3
I6
sg4
(lp348
sg6
I0
sg7
I00
sg8
S'genus'
p349
sg10
I0
sg11
S'338153'
p350
sg12
Nsg13
(dp351
S'Panthera'
p352
(iSAP.Taxonomy
TaxonomySummary
p353
(dp354
g3
I4
sg4
(lp355
sg6
I0
sg7
I00
sg8
S'species'
p356
sg10
I0
sg11
S'9688'
p357
sg12
Nsg13
(dp358
S'Panthera onca'
p359
(iSAP.Taxonomy
TaxonomySummary
p360
(dp361
g3
I1
sg4
(lp362
sg6
I0
sg7
I00
sg8
Nsg10
I0
sg11
S'9690'
p363
sg12
Nsg13
(dp364
sg98
I0
sg99
Nsg181
I0
sg182
I00
sbsS'Panthera pardus'
p365
(iSAP.Taxonomy
TaxonomySummary
p366
(dp367
g3
I1
sg4
(lp368
sg6
I0
sg7
I00
sg8
Nsg10
I0
sg11
S'9691'
p369
sg12
Nsg13
(dp370
sg98
I0
sg99
Nsg181
I0
sg182
I00
sbsg92
(iSAP.Taxonomy
TaxonomySummary
p371
(dp372
g3
I1
sg4
(lp373
sg6
I0
sg7
I00
sg8
Nsg10
I0
sg11
g96
sg12
Nsg13
(dp374
sg98
I0
sg99
Nsg181
I0
sg182
I00
sbsS'Panthera tigris'
p375
(iSAP.Taxonomy
TaxonomySummary
p376
(dp377
g3
I1
sg4
(lp378
sg6
I0
sg7
I00
sg8
Nsg10
I0
sg11
S'9694'
p379
sg12
Nsg13
(dp380
sg98
I0
sg99
Nsg181
I0
sg182
I00
sbssg98
I0
sg99
Nsg181
I0
sg182
I00
sbsS'Neofelis'
p381
(iSAP.Taxonomy
TaxonomySummary
p382
(dp383
g3
I1
sg4
(lp384
sg6
I0
sg7
I00
sg8
S'species'
p385
sg10
I0
sg11
S'61451'
p386
sg12
Nsg13
(dp387
S'Neofelis nebulosa'
p388
(iSAP.Taxonomy
TaxonomySummary
p389
(dp390
g3
I1
sg4
(lp391
sg6
I0
sg7
I00
sg8
Nsg10
I0
sg11
S'61452'
p392
sg12
Nsg13
(dp393
sg98
I0
sg99
Nsg181
I0
sg182
I00
sbssg98
I0
sg99
Nsg181
I0
sg182
I00
sbsS'Uncia'
p394
(iSAP.Taxonomy
TaxonomySummary
p395
(dp396
g3
I1
sg4
(lp397
sg6
I0
sg7
I00
sg8
S'species'
p398
sg10
I0
sg11
S'29063'
p399
sg12
Nsg13
(dp400
S'Uncia uncia'
p401
(iSAP.Taxonomy
TaxonomySummary
p402
(dp403
g3
I1
sg4
(lp404
sg6
I0
sg7
I00
sg8
Nsg10
I0
sg11
S'29064'
p405
sg12
Nsg13
(dp406
sg98
I0
sg99
Nsg181
I0
sg182
I00
sbssg98
I0
sg99
Nsg181
I0
sg182
I00
sbssg98
I0
sg99
Nsg181
I0
sg182
I00
sbssg98
I0
sg99
Nsg181
I0
sg182
I00
sbssg98
I0
sg99
Nsg181
I0
sg182
I00
sbssg98
I0
sg99
Nsg181
I0
sg182
I00
sbssg98
I0
sg99
Nsg181
I0
sg182
I00
sbssg98
I0
sg99
Nsg181
I0
sg182
I00
sbssg98
I0
sg99
Nsg181
I0
sg182
I00
sbssg98
I0
sg99
Nsg181
I0
sg182
I00
sbssg98
I0
sg99
Nsg181
I0
sg182
I00
sbssg98
I0
sg99
Nsg181
I0
sg182
I00
sbssg98
I0
sg99
Nsg181
I0
sg182
I00
sbsg181
I0
sg182
I00
sbssg98
I1000
sg99
g100
sg181
I0
sg182
I00
sbssg98
I1000
sg99
g100
sg181
I0
sg182
I00
sbssg98
I1000
sg99
g100
sg181
I0
sg182
I00
sbssg98
I1000
sg99
g100
sg181
I0
sg182
I00
sbssg98
I1000
sg99
g100
sg181
I0
sg182
I00
sbssg98
I1000
sg99
g100
sg181
I0
sg182
I00
sbssg98
I1000
sg99
g100
sg181
I0
sg182
I00
sbssg98
I1000
sg99
g100
sg181
I0
sg182
I00
sbssg98
I1000
sg99
g100
sg181
I0
sg182
I00
sbssg98
I1000
sg99
g100
sg181
I0
sg182
I00
sbssg98
I1000
sg99
g100
sg181
I0
sg182
I00
sbssg98
I1000
sg99
g100
sg181
I0
sg182
I00
sb.