(iSAP.Taxonomy
TaxonomySummary
p1
(dp2
S'count'
p3
I1000
sS'pruneList'
p4
(lp5
sS'ingroupCount'
p6
I0
sS'significanceSummary'
p7
I00
sS'level'
p8
S'superkingdom'
p9
sS'pruneLevel'
p10
I0
sS'dbid'
p11
NsS'prior'
p12
NsS'dict'
p13
(dp14
S'Eukaryota'
p15
(iSAP.Taxonomy
TaxonomySummary
p16
(dp17
g3
I1000
sg4
(lp18
sg6
I0
sg7
I00
sg8
S'kingdom'
p19
sg10
I0
sg11
S'2759'
p20
sg12
Nsg13
(dp21
S'Metazoa'
p22
(iSAP.Taxonomy
TaxonomySummary
p23
(dp24
g3
I1000
sg4
(lp25
sg6
I0
sg7
I00
sg8
S'phylum'
p26
sg10
I0
sg11
S'33208'
p27
sg12
Nsg13
(dp28
S'Chordata'
p29
(iSAP.Taxonomy
TaxonomySummary
p30
(dp31
g3
I1000
sg4
(lp32
sg6
I0
sg7
I00
sg8
S'subphylum'
p33
sg10
I0
sg11
S'7711'
p34
sg12
Nsg13
(dp35
S'Craniata'
p36
(iSAP.Taxonomy
TaxonomySummary
p37
(dp38
g3
I1000
sg4
(lp39
sg6
I0
sg7
I00
sg8
S'class'
p40
sg10
I0
sg11
S'89593'
p41
sg12
Nsg13
(dp42
S'Mammalia'
p43
(iSAP.Taxonomy
TaxonomySummary
p44
(dp45
g3
I1000
sg4
(lp46
sg6
I0
sg7
I00
sg8
S'superorder'
p47
sg10
I0
sg11
S'40674'
p48
sg12
Nsg13
(dp49
S'Laurasiatheria'
p50
(iSAP.Taxonomy
TaxonomySummary
p51
(dp52
g3
I1000
sg4
(lp53
sg6
I0
sg7
I00
sg8
S'order'
p54
sg10
I0
sg11
S'314145'
p55
sg12
Nsg13
(dp56
S'Carnivora'
p57
(iSAP.Taxonomy
TaxonomySummary
p58
(dp59
g3
I1000
sg4
(lp60
sg6
I0
sg7
I00
sg8
S'suborder'
p61
sg10
I0
sg11
S'33554'
p62
sg12
Nsg13
(dp63
S'Feliformia'
p64
(iSAP.Taxonomy
TaxonomySummary
p65
(dp66
g3
I1000
sg4
(lp67
sg6
I0
sg7
I00
sg8
S'family'
p68
sg10
I0
sg11
S'379583'
p69
sg12
Nsg13
(dp70
S'Felidae'
p71
(iSAP.Taxonomy
TaxonomySummary
p72
(dp73
g3
I1000
sg4
(lp74
sg6
I0
sg7
I00
sg8
S'subfamily'
p75
sg10
I0
sg11
S'9681'
p76
sg12
Nsg13
(dp77
S'Pantherinae'
p78
(iSAP.Taxonomy
TaxonomySummary
p79
(dp80
g3
I1000
sg4
(lp81
sg6
I0
sg7
I00
sg8
S'genus'
p82
sg10
I0
sg11
S'338153'
p83
sg12
Nsg13
(dp84
S'Panthera'
p85
(iSAP.Taxonomy
TaxonomySummary
p86
(dp87
g3
I1000
sg4
(lp88
sg6
I0
sg7
I00
sg8
S'species'
p89
sg10
I0
sg11
S'9688'
p90
sg12
Nsg13
(dp91
S'Panthera pardus'
p92
(iSAP.Taxonomy
TaxonomySummary
p93
(dp94
g3
I1000
sg4
(lp95
sg6
I0
sg7
I00
sg8
Nsg10
I0
sg11
S'9691'
p96
sg12
Nsg13
(dp97
sS'definingTaxonMonophyleticCount'
p98
I1000
sS'priorSummary'
p99
(iSAP.Taxonomy
TaxonomySummary
p100
(dp101
g3
I19
sg4
(lp102
sg6
I0
sg7
I00
sg8
S'superkingdom'
p103
sg10
I0
sg11
Nsg12
Nsg13
(dp104
S'Eukaryota'
p105
(iSAP.Taxonomy
TaxonomySummary
p106
(dp107
g3
I19
sg4
(lp108
sg6
I0
sg7
I00
sg8
S'kingdom'
p109
sg10
I0
sg11
S'2759'
p110
sg12
Nsg13
(dp111
S'Metazoa'
p112
(iSAP.Taxonomy
TaxonomySummary
p113
(dp114
g3
I19
sg4
(lp115
sg6
I0
sg7
I00
sg8
S'phylum'
p116
sg10
I0
sg11
S'33208'
p117
sg12
Nsg13
(dp118
S'Chordata'
p119
(iSAP.Taxonomy
TaxonomySummary
p120
(dp121
g3
I19
sg4
(lp122
sg6
I0
sg7
I00
sg8
S'subphylum'
p123
sg10
I0
sg11
S'7711'
p124
sg12
Nsg13
(dp125
S'Craniata'
p126
(iSAP.Taxonomy
TaxonomySummary
p127
(dp128
g3
I19
sg4
(lp129
sg6
I0
sg7
I00
sg8
S'class'
p130
sg10
I0
sg11
S'89593'
p131
sg12
Nsg13
(dp132
S'Mammalia'
p133
(iSAP.Taxonomy
TaxonomySummary
p134
(dp135
g3
I19
sg4
(lp136
sg6
I0
sg7
I00
sg8
S'superorder'
p137
sg10
I0
sg11
S'40674'
p138
sg12
Nsg13
(dp139
S'Euarchontoglires'
p140
(iSAP.Taxonomy
TaxonomySummary
p141
(dp142
g3
I1
sg4
(lp143
sg6
I0
sg7
I00
sg8
S'order'
p144
sg10
I0
sg11
S'314146'
p145
sg12
Nsg13
(dp146
S'Rodentia'
p147
(iSAP.Taxonomy
TaxonomySummary
p148
(dp149
g3
I1
sg4
(lp150
sg6
I0
sg7
I00
sg8
S'suborder'
p151
sg10
I0
sg11
S'9989'
p152
sg12
Nsg13
(dp153
S'Sciurognathi'
p154
(iSAP.Taxonomy
TaxonomySummary
p155
(dp156
g3
I1
sg4
(lp157
sg6
I0
sg7
I00
sg8
S'family'
p158
sg10
I0
sg11
S'33553'
p159
sg12
Nsg13
(dp160
S'Muridae'
p161
(iSAP.Taxonomy
TaxonomySummary
p162
(dp163
g3
I1
sg4
(lp164
sg6
I0
sg7
I00
sg8
S'subfamily'
p165
sg10
I0
sg11
S'10066'
p166
sg12
Nsg13
(dp167
S'Murinae'
p168
(iSAP.Taxonomy
TaxonomySummary
p169
(dp170
g3
I1
sg4
(lp171
sg6
I0
sg7
I00
sg8
S'genus'
p172
sg10
I0
sg11
S'39107'
p173
sg12
Nsg13
(dp174
S'Berylmys'
p175
(iSAP.Taxonomy
TaxonomySummary
p176
(dp177
g3
I1
sg4
(lp178
sg6
I0
sg7
I00
sg8
S'species'
p179
sg10
I0
sg11
S'83758'
p180
sg12
Nsg13
(dp181
S'Berylmys berdmorei'
p182
(iSAP.Taxonomy
TaxonomySummary
p183
(dp184
g3
I1
sg4
(lp185
sg6
I0
sg7
I00
sg8
Nsg10
I0
sg11
S'595394'
p186
sg12
Nsg13
(dp187
sg98
I0
sg99
NsS'monophyleticCount'
p188
I0
sS'bayesFactors'
p189
I00
sbssg98
I0
sg99
Nsg188
I0
sg189
I00
sbssg98
I0
sg99
Nsg188
I0
sg189
I00
sbssg98
I0
sg99
Nsg188
I0
sg189
I00
sbssg98
I0
sg99
Nsg188
I0
sg189
I00
sbssg98
I0
sg99
Nsg188
I0
sg189
I00
sbssg98
I0
sg99
Nsg188
I0
sg189
I00
sbsS'Laurasiatheria'
p190
(iSAP.Taxonomy
TaxonomySummary
p191
(dp192
g3
I18
sg4
(lp193
sg6
I0
sg7
I00
sg8
S'order'
p194
sg10
I0
sg11
S'314145'
p195
sg12
Nsg13
(dp196
S'Carnivora'
p197
(iSAP.Taxonomy
TaxonomySummary
p198
(dp199
g3
I18
sg4
(lp200
sg6
I0
sg7
I00
sg8
S'suborder'
p201
sg10
I0
sg11
S'33554'
p202
sg12
Nsg13
(dp203
S'Feliformia'
p204
(iSAP.Taxonomy
TaxonomySummary
p205
(dp206
g3
I18
sg4
(lp207
sg6
I0
sg7
I00
sg8
S'family'
p208
sg10
I0
sg11
S'379583'
p209
sg12
Nsg13
(dp210
S'Felidae'
p211
(iSAP.Taxonomy
TaxonomySummary
p212
(dp213
g3
I18
sg4
(lp214
sg6
I0
sg7
I00
sg8
S'subfamily'
p215
sg10
I0
sg11
S'9681'
p216
sg12
Nsg13
(dp217
S'Felinae'
p218
(iSAP.Taxonomy
TaxonomySummary
p219
(dp220
g3
I12
sg4
(lp221
sg6
I0
sg7
I00
sg8
S'genus'
p222
sg10
I0
sg11
S'338152'
p223
sg12
Nsg13
(dp224
S'Felis'
p225
(iSAP.Taxonomy
TaxonomySummary
p226
(dp227
g3
I3
sg4
(lp228
sg6
I0
sg7
I00
sg8
S'species'
p229
sg10
I0
sg11
S'9682'
p230
sg12
Nsg13
(dp231
S'Felis chaus'
p232
(iSAP.Taxonomy
TaxonomySummary
p233
(dp234
g3
I1
sg4
(lp235
sg6
I0
sg7
I00
sg8
Nsg10
I0
sg11
S'61376'
p236
sg12
Nsg13
(dp237
sg98
I0
sg99
Nsg188
I0
sg189
I00
sbsS'Felis catus'
p238
(iSAP.Taxonomy
TaxonomySummary
p239
(dp240
g3
I1
sg4
(lp241
sg6
I0
sg7
I00
sg8
Nsg10
I0
sg11
S'9685'
p242
sg12
Nsg13
(dp243
sg98
I0
sg99
Nsg188
I0
sg189
I00
sbsS'Felis silvestris'
p244
(iSAP.Taxonomy
TaxonomySummary
p245
(dp246
g3
I1
sg4
(lp247
sg6
I0
sg7
I00
sg8
Nsg10
I0
sg11
S'9683'
p248
sg12
Nsg13
(dp249
sg98
I0
sg99
Nsg188
I0
sg189
I00
sbssg98
I0
sg99
Nsg188
I0
sg189
I00
sbsS'Leptailurus'
p250
(iSAP.Taxonomy
TaxonomySummary
p251
(dp252
g3
I1
sg4
(lp253
sg6
I0
sg7
I00
sg8
S'species'
p254
sg10
I0
sg11
S'61404'
p255
sg12
Nsg13
(dp256
S'Leptailurus serval'
p257
(iSAP.Taxonomy
TaxonomySummary
p258
(dp259
g3
I1
sg4
(lp260
sg6
I0
sg7
I00
sg8
Nsg10
I0
sg11
S'61405'
p261
sg12
Nsg13
(dp262
sg98
I0
sg99
Nsg188
I0
sg189
I00
sbssg98
I0
sg99
Nsg188
I0
sg189
I00
sbsS'Profelis'
p263
(iSAP.Taxonomy
TaxonomySummary
p264
(dp265
g3
I1
sg4
(lp266
sg6
I0
sg7
I00
sg8
S'species'
p267
sg10
I0
sg11
S'61411'
p268
sg12
Nsg13
(dp269
S'Profelis aurata'
p270
(iSAP.Taxonomy
TaxonomySummary
p271
(dp272
g3
I1
sg4
(lp273
sg6
I0
sg7
I00
sg8
Nsg10
I0
sg11
S'61412'
p274
sg12
Nsg13
(dp275
sg98
I0
sg99
Nsg188
I0
sg189
I00
sbssg98
I0
sg99
Nsg188
I0
sg189
I00
sbsS'Catopuma'
p276
(iSAP.Taxonomy
TaxonomySummary
p277
(dp278
g3
I1
sg4
(lp279
sg6
I0
sg7
I00
sg8
S'species'
p280
sg10
I0
sg11
S'61453'
p281
sg12
Nsg13
(dp282
S'Catopuma temminckii'
p283
(iSAP.Taxonomy
TaxonomySummary
p284
(dp285
g3
I1
sg4
(lp286
sg6
I0
sg7
I00
sg8
Nsg10
I0
sg11
S'61455'
p287
sg12
Nsg13
(dp288
sg98
I0
sg99
Nsg188
I0
sg189
I00
sbssg98
I0
sg99
Nsg188
I0
sg189
I00
sbsS'Lynx'
p289
(iSAP.Taxonomy
TaxonomySummary
p290
(dp291
g3
I3
sg4
(lp292
sg6
I0
sg7
I00
sg8
S'species'
p293
sg10
I0
sg11
S'13124'
p294
sg12
Nsg13
(dp295
S'Lynx canadensis'
p296
(iSAP.Taxonomy
TaxonomySummary
p297
(dp298
g3
I1
sg4
(lp299
sg6
I0
sg7
I00
sg8
Nsg10
I0
sg11
S'61383'
p300
sg12
Nsg13
(dp301
sg98
I0
sg99
Nsg188
I0
sg189
I00
sbsS'Lynx rufus'
p302
(iSAP.Taxonomy
TaxonomySummary
p303
(dp304
g3
I1
sg4
(lp305
sg6
I0
sg7
I00
sg8
Nsg10
I0
sg11
S'61384'
p306
sg12
Nsg13
(dp307
sg98
I0
sg99
Nsg188
I0
sg189
I00
sbsS'Lynx lynx'
p308
(iSAP.Taxonomy
TaxonomySummary
p309
(dp310
g3
I1
sg4
(lp311
sg6
I0
sg7
I00
sg8
Nsg10
I0
sg11
S'13125'
p312
sg12
Nsg13
(dp313
sg98
I0
sg99
Nsg188
I0
sg189
I00
sbssg98
I0
sg99
Nsg188
I0
sg189
I00
sbsS'Prionailurus'
p314
(iSAP.Taxonomy
TaxonomySummary
p315
(dp316
g3
I3
sg4
(lp317
sg6
I0
sg7
I00
sg8
S'species'
p318
sg10
I0
sg11
S'37028'
p319
sg12
Nsg13
(dp320
S'Prionailurus planiceps'
p321
(iSAP.Taxonomy
TaxonomySummary
p322
(dp323
g3
I1
sg4
(lp324
sg6
I0
sg7
I00
sg8
Nsg10
I0
sg11
S'61403'
p325
sg12
Nsg13
(dp326
sg98
I0
sg99
Nsg188
I0
sg189
I00
sbsS'Prionailurus bengalensis'
p327
(iSAP.Taxonomy
TaxonomySummary
p328
(dp329
g3
I1
sg4
(lp330
sg6
I0
sg7
I00
sg8
Nsg10
I0
sg11
S'37029'
p331
sg12
Nsg13
(dp332
sg98
I0
sg99
Nsg188
I0
sg189
I00
sbsS'Prionailurus viverrinus'
p333
(iSAP.Taxonomy
TaxonomySummary
p334
(dp335
g3
I1
sg4
(lp336
sg6
I0
sg7
I00
sg8
Nsg10
I0
sg11
S'61388'
p337
sg12
Nsg13
(dp338
sg98
I0
sg99
Nsg188
I0
sg189
I00
sbssg98
I0
sg99
Nsg188
I0
sg189
I00
sbssg98
I0
sg99
Nsg188
I0
sg189
I00
sbsg78
(iSAP.Taxonomy
TaxonomySummary
p339
(dp340
g3
I6
sg4
(lp341
sg6
I0
sg7
I00
sg8
g82
sg10
I0
sg11
g83
sg12
Nsg13
(dp342
g85
(iSAP.Taxonomy
TaxonomySummary
p343
(dp344
g3
I4
sg4
(lp345
sg6
I0
sg7
I00
sg8
g89
sg10
I0
sg11
g90
sg12
Nsg13
(dp346
S'Panthera onca'
p347
(iSAP.Taxonomy
TaxonomySummary
p348
(dp349
g3
I1
sg4
(lp350
sg6
I0
sg7
I00
sg8
Nsg10
I0
sg11
S'9690'
p351
sg12
Nsg13
(dp352
sg98
I0
sg99
Nsg188
I0
sg189
I00
sbsg92
(iSAP.Taxonomy
TaxonomySummary
p353
(dp354
g3
I1
sg4
(lp355
sg6
I0
sg7
I00
sg8
Nsg10
I0
sg11
g96
sg12
Nsg13
(dp356
sg98
I0
sg99
Nsg188
I0
sg189
I00
sbsS'Panthera leo'
p357
(iSAP.Taxonomy
TaxonomySummary
p358
(dp359
g3
I1
sg4
(lp360
sg6
I0
sg7
I00
sg8
Nsg10
I0
sg11
S'9689'
p361
sg12
Nsg13
(dp362
sg98
I0
sg99
Nsg188
I0
sg189
I00
sbsS'Panthera tigris'
p363
(iSAP.Taxonomy
TaxonomySummary
p364
(dp365
g3
I1
sg4
(lp366
sg6
I0
sg7
I00
sg8
Nsg10
I0
sg11
S'9694'
p367
sg12
Nsg13
(dp368
sg98
I0
sg99
Nsg188
I0
sg189
I00
sbssg98
I0
sg99
Nsg188
I0
sg189
I00
sbsS'Neofelis'
p369
(iSAP.Taxonomy
TaxonomySummary
p370
(dp371
g3
I1
sg4
(lp372
sg6
I0
sg7
I00
sg8
S'species'
p373
sg10
I0
sg11
S'61451'
p374
sg12
Nsg13
(dp375
S'Neofelis nebulosa'
p376
(iSAP.Taxonomy
TaxonomySummary
p377
(dp378
g3
I1
sg4
(lp379
sg6
I0
sg7
I00
sg8
Nsg10
I0
sg11
S'61452'
p380
sg12
Nsg13
(dp381
sg98
I0
sg99
Nsg188
I0
sg189
I00
sbssg98
I0
sg99
Nsg188
I0
sg189
I00
sbsS'Uncia'
p382
(iSAP.Taxonomy
TaxonomySummary
p383
(dp384
g3
I1
sg4
(lp385
sg6
I0
sg7
I00
sg8
S'species'
p386
sg10
I0
sg11
S'29063'
p387
sg12
Nsg13
(dp388
S'Uncia uncia'
p389
(iSAP.Taxonomy
TaxonomySummary
p390
(dp391
g3
I1
sg4
(lp392
sg6
I0
sg7
I00
sg8
Nsg10
I0
sg11
S'29064'
p393
sg12
Nsg13
(dp394
sg98
I0
sg99
Nsg188
I0
sg189
I00
sbssg98
I0
sg99
Nsg188
I0
sg189
I00
sbssg98
I0
sg99
Nsg188
I0
sg189
I00
sbssg98
I0
sg99
Nsg188
I0
sg189
I00
sbssg98
I0
sg99
Nsg188
I0
sg189
I00
sbssg98
I0
sg99
Nsg188
I0
sg189
I00
sbssg98
I0
sg99
Nsg188
I0
sg189
I00
sbssg98
I0
sg99
Nsg188
I0
sg189
I00
sbssg98
I0
sg99
Nsg188
I0
sg189
I00
sbssg98
I0
sg99
Nsg188
I0
sg189
I00
sbssg98
I0
sg99
Nsg188
I0
sg189
I00
sbssg98
I0
sg99
Nsg188
I0
sg189
I00
sbssg98
I0
sg99
Nsg188
I0
sg189
I00
sbsg188
I0
sg189
I00
sbssg98
I1000
sg99
g100
sg188
I0
sg189
I00
sbssg98
I1000
sg99
g100
sg188
I0
sg189
I00
sbssg98
I1000
sg99
g100
sg188
I0
sg189
I00
sbssg98
I1000
sg99
g100
sg188
I0
sg189
I00
sbssg98
I1000
sg99
g100
sg188
I0
sg189
I00
sbssg98
I1000
sg99
g100
sg188
I0
sg189
I00
sbssg98
I1000
sg99
g100
sg188
I0
sg189
I00
sbssg98
I1000
sg99
g100
sg188
I0
sg189
I00
sbssg98
I1000
sg99
g100
sg188
I0
sg189
I00
sbssg98
I1000
sg99
g100
sg188
I0
sg189
I00
sbssg98
I1000
sg99
g100
sg188
I0
sg189
I00
sbssg98
I1000
sg99
g100
sg188
I0
sg189
I00
sb.