(iSAP.Taxonomy
TaxonomySummary
p1
(dp2
S'count'
p3
I1000
sS'pruneList'
p4
(lp5
sS'ingroupCount'
p6
I0
sS'significanceSummary'
p7
I00
sS'level'
p8
S'superkingdom'
p9
sS'pruneLevel'
p10
I0
sS'dbid'
p11
NsS'prior'
p12
NsS'dict'
p13
(dp14
S'Eukaryota'
p15
(iSAP.Taxonomy
TaxonomySummary
p16
(dp17
g3
I1000
sg4
(lp18
sg6
I0
sg7
I00
sg8
S'kingdom'
p19
sg10
I0
sg11
S'2759'
p20
sg12
Nsg13
(dp21
S'Metazoa'
p22
(iSAP.Taxonomy
TaxonomySummary
p23
(dp24
g3
I1000
sg4
(lp25
sg6
I0
sg7
I00
sg8
S'phylum'
p26
sg10
I0
sg11
S'33208'
p27
sg12
Nsg13
(dp28
S'Chordata'
p29
(iSAP.Taxonomy
TaxonomySummary
p30
(dp31
g3
I1000
sg4
(lp32
sg6
I0
sg7
I00
sg8
S'subphylum'
p33
sg10
I0
sg11
S'7711'
p34
sg12
Nsg13
(dp35
S'Craniata'
p36
(iSAP.Taxonomy
TaxonomySummary
p37
(dp38
g3
I1000
sg4
(lp39
sg6
I0
sg7
I00
sg8
S'class'
p40
sg10
I0
sg11
S'89593'
p41
sg12
Nsg13
(dp42
S'Mammalia'
p43
(iSAP.Taxonomy
TaxonomySummary
p44
(dp45
g3
I1000
sg4
(lp46
sg6
I0
sg7
I00
sg8
S'superorder'
p47
sg10
I0
sg11
S'40674'
p48
sg12
Nsg13
(dp49
S'Laurasiatheria'
p50
(iSAP.Taxonomy
TaxonomySummary
p51
(dp52
g3
I1000
sg4
(lp53
sg6
I0
sg7
I00
sg8
S'order'
p54
sg10
I0
sg11
S'314145'
p55
sg12
Nsg13
(dp56
S'Carnivora'
p57
(iSAP.Taxonomy
TaxonomySummary
p58
(dp59
g3
I1000
sg4
(lp60
sg6
I0
sg7
I00
sg8
S'suborder'
p61
sg10
I0
sg11
S'33554'
p62
sg12
Nsg13
(dp63
S'Feliformia'
p64
(iSAP.Taxonomy
TaxonomySummary
p65
(dp66
g3
I1000
sg4
(lp67
sg6
I0
sg7
I00
sg8
S'family'
p68
sg10
I0
sg11
S'379583'
p69
sg12
Nsg13
(dp70
S'Felidae'
p71
(iSAP.Taxonomy
TaxonomySummary
p72
(dp73
g3
I1000
sg4
(lp74
sg6
I0
sg7
I00
sg8
S'subfamily'
p75
sg10
I0
sg11
S'9681'
p76
sg12
Nsg13
(dp77
S'Pantherinae'
p78
(iSAP.Taxonomy
TaxonomySummary
p79
(dp80
g3
I1000
sg4
(lp81
sg6
I0
sg7
I00
sg8
S'genus'
p82
sg10
I0
sg11
S'338153'
p83
sg12
Nsg13
(dp84
S'Uncia'
p85
(iSAP.Taxonomy
TaxonomySummary
p86
(dp87
g3
I1000
sg4
(lp88
sg6
I0
sg7
I00
sg8
S'species'
p89
sg10
I0
sg11
S'29063'
p90
sg12
Nsg13
(dp91
S'Uncia uncia'
p92
(iSAP.Taxonomy
TaxonomySummary
p93
(dp94
g3
I1000
sg4
(lp95
sg6
I0
sg7
I00
sg8
Nsg10
I0
sg11
S'29064'
p96
sg12
Nsg13
(dp97
sS'definingTaxonMonophyleticCount'
p98
I1000
sS'priorSummary'
p99
(iSAP.Taxonomy
TaxonomySummary
p100
(dp101
g3
I20
sg4
(lp102
sg6
I0
sg7
I00
sg8
S'superkingdom'
p103
sg10
I0
sg11
Nsg12
Nsg13
(dp104
S'Eukaryota'
p105
(iSAP.Taxonomy
TaxonomySummary
p106
(dp107
g3
I20
sg4
(lp108
sg6
I0
sg7
I00
sg8
S'kingdom'
p109
sg10
I0
sg11
S'2759'
p110
sg12
Nsg13
(dp111
S'Metazoa'
p112
(iSAP.Taxonomy
TaxonomySummary
p113
(dp114
g3
I20
sg4
(lp115
sg6
I0
sg7
I00
sg8
S'phylum'
p116
sg10
I0
sg11
S'33208'
p117
sg12
Nsg13
(dp118
S'Chordata'
p119
(iSAP.Taxonomy
TaxonomySummary
p120
(dp121
g3
I20
sg4
(lp122
sg6
I0
sg7
I00
sg8
S'subphylum'
p123
sg10
I0
sg11
S'7711'
p124
sg12
Nsg13
(dp125
S'Craniata'
p126
(iSAP.Taxonomy
TaxonomySummary
p127
(dp128
g3
I20
sg4
(lp129
sg6
I0
sg7
I00
sg8
S'class'
p130
sg10
I0
sg11
S'89593'
p131
sg12
Nsg13
(dp132
S'Mammalia'
p133
(iSAP.Taxonomy
TaxonomySummary
p134
(dp135
g3
I20
sg4
(lp136
sg6
I0
sg7
I00
sg8
S'superorder'
p137
sg10
I0
sg11
S'40674'
p138
sg12
Nsg13
(dp139
S'Laurasiatheria'
p140
(iSAP.Taxonomy
TaxonomySummary
p141
(dp142
g3
I20
sg4
(lp143
sg6
I0
sg7
I00
sg8
S'order'
p144
sg10
I0
sg11
S'314145'
p145
sg12
Nsg13
(dp146
S'Carnivora'
p147
(iSAP.Taxonomy
TaxonomySummary
p148
(dp149
g3
I20
sg4
(lp150
sg6
I0
sg7
I00
sg8
S'suborder'
p151
sg10
I0
sg11
S'33554'
p152
sg12
Nsg13
(dp153
S'Feliformia'
p154
(iSAP.Taxonomy
TaxonomySummary
p155
(dp156
g3
I20
sg4
(lp157
sg6
I0
sg7
I00
sg8
S'family'
p158
sg10
I0
sg11
S'379583'
p159
sg12
Nsg13
(dp160
S'Herpestidae'
p161
(iSAP.Taxonomy
TaxonomySummary
p162
(dp163
g3
I1
sg4
(lp164
sg6
I0
sg7
I00
sg8
S'subfamily'
p165
sg10
I0
sg11
S'9697'
p166
sg12
Nsg13
(dp167
S'placeHolder'
p168
(iSAP.Taxonomy
TaxonomySummary
p169
(dp170
g3
I1
sg4
(lp171
sg6
I0
sg7
I00
sg8
S'genus'
p172
sg10
I0
sg11
g166
sg12
Nsg13
(dp173
S'Atilax'
p174
(iSAP.Taxonomy
TaxonomySummary
p175
(dp176
g3
I1
sg4
(lp177
sg6
I0
sg7
I00
sg8
S'species'
p178
sg10
I0
sg11
S'210641'
p179
sg12
Nsg13
(dp180
S'Atilax paludinosus'
p181
(iSAP.Taxonomy
TaxonomySummary
p182
(dp183
g3
I1
sg4
(lp184
sg6
I0
sg7
I00
sg8
Nsg10
I0
sg11
S'210642'
p185
sg12
Nsg13
(dp186
sg98
I0
sg99
NsS'monophyleticCount'
p187
I0
sS'bayesFactors'
p188
I00
sbssg98
I0
sg99
Nsg187
I0
sg188
I00
sbssg98
I0
sg99
Nsg187
I0
sg188
I00
sbssg98
I0
sg99
Nsg187
I0
sg188
I00
sbsS'Felidae'
p189
(iSAP.Taxonomy
TaxonomySummary
p190
(dp191
g3
I18
sg4
(lp192
sg6
I0
sg7
I00
sg8
g165
sg10
I0
sg11
S'9681'
p193
sg12
Nsg13
(dp194
S'Felinae'
p195
(iSAP.Taxonomy
TaxonomySummary
p196
(dp197
g3
I12
sg4
(lp198
sg6
I0
sg7
I00
sg8
S'genus'
p199
sg10
I0
sg11
S'338152'
p200
sg12
Nsg13
(dp201
S'Felis'
p202
(iSAP.Taxonomy
TaxonomySummary
p203
(dp204
g3
I3
sg4
(lp205
sg6
I0
sg7
I00
sg8
S'species'
p206
sg10
I0
sg11
S'9682'
p207
sg12
Nsg13
(dp208
S'Felis chaus'
p209
(iSAP.Taxonomy
TaxonomySummary
p210
(dp211
g3
I1
sg4
(lp212
sg6
I0
sg7
I00
sg8
Nsg10
I0
sg11
S'61376'
p213
sg12
Nsg13
(dp214
sg98
I0
sg99
Nsg187
I0
sg188
I00
sbsS'Felis catus'
p215
(iSAP.Taxonomy
TaxonomySummary
p216
(dp217
g3
I1
sg4
(lp218
sg6
I0
sg7
I00
sg8
Nsg10
I0
sg11
S'9685'
p219
sg12
Nsg13
(dp220
sg98
I0
sg99
Nsg187
I0
sg188
I00
sbsS'Felis silvestris'
p221
(iSAP.Taxonomy
TaxonomySummary
p222
(dp223
g3
I1
sg4
(lp224
sg6
I0
sg7
I00
sg8
Nsg10
I0
sg11
S'9683'
p225
sg12
Nsg13
(dp226
sg98
I0
sg99
Nsg187
I0
sg188
I00
sbssg98
I0
sg99
Nsg187
I0
sg188
I00
sbsS'Leptailurus'
p227
(iSAP.Taxonomy
TaxonomySummary
p228
(dp229
g3
I1
sg4
(lp230
sg6
I0
sg7
I00
sg8
S'species'
p231
sg10
I0
sg11
S'61404'
p232
sg12
Nsg13
(dp233
S'Leptailurus serval'
p234
(iSAP.Taxonomy
TaxonomySummary
p235
(dp236
g3
I1
sg4
(lp237
sg6
I0
sg7
I00
sg8
Nsg10
I0
sg11
S'61405'
p238
sg12
Nsg13
(dp239
sg98
I0
sg99
Nsg187
I0
sg188
I00
sbssg98
I0
sg99
Nsg187
I0
sg188
I00
sbsS'Profelis'
p240
(iSAP.Taxonomy
TaxonomySummary
p241
(dp242
g3
I1
sg4
(lp243
sg6
I0
sg7
I00
sg8
S'species'
p244
sg10
I0
sg11
S'61411'
p245
sg12
Nsg13
(dp246
S'Profelis aurata'
p247
(iSAP.Taxonomy
TaxonomySummary
p248
(dp249
g3
I1
sg4
(lp250
sg6
I0
sg7
I00
sg8
Nsg10
I0
sg11
S'61412'
p251
sg12
Nsg13
(dp252
sg98
I0
sg99
Nsg187
I0
sg188
I00
sbssg98
I0
sg99
Nsg187
I0
sg188
I00
sbsS'Catopuma'
p253
(iSAP.Taxonomy
TaxonomySummary
p254
(dp255
g3
I1
sg4
(lp256
sg6
I0
sg7
I00
sg8
S'species'
p257
sg10
I0
sg11
S'61453'
p258
sg12
Nsg13
(dp259
S'Catopuma temminckii'
p260
(iSAP.Taxonomy
TaxonomySummary
p261
(dp262
g3
I1
sg4
(lp263
sg6
I0
sg7
I00
sg8
Nsg10
I0
sg11
S'61455'
p264
sg12
Nsg13
(dp265
sg98
I0
sg99
Nsg187
I0
sg188
I00
sbssg98
I0
sg99
Nsg187
I0
sg188
I00
sbsS'Lynx'
p266
(iSAP.Taxonomy
TaxonomySummary
p267
(dp268
g3
I3
sg4
(lp269
sg6
I0
sg7
I00
sg8
S'species'
p270
sg10
I0
sg11
S'13124'
p271
sg12
Nsg13
(dp272
S'Lynx canadensis'
p273
(iSAP.Taxonomy
TaxonomySummary
p274
(dp275
g3
I1
sg4
(lp276
sg6
I0
sg7
I00
sg8
Nsg10
I0
sg11
S'61383'
p277
sg12
Nsg13
(dp278
sg98
I0
sg99
Nsg187
I0
sg188
I00
sbsS'Lynx rufus'
p279
(iSAP.Taxonomy
TaxonomySummary
p280
(dp281
g3
I1
sg4
(lp282
sg6
I0
sg7
I00
sg8
Nsg10
I0
sg11
S'61384'
p283
sg12
Nsg13
(dp284
sg98
I0
sg99
Nsg187
I0
sg188
I00
sbsS'Lynx lynx'
p285
(iSAP.Taxonomy
TaxonomySummary
p286
(dp287
g3
I1
sg4
(lp288
sg6
I0
sg7
I00
sg8
Nsg10
I0
sg11
S'13125'
p289
sg12
Nsg13
(dp290
sg98
I0
sg99
Nsg187
I0
sg188
I00
sbssg98
I0
sg99
Nsg187
I0
sg188
I00
sbsS'Caracal'
p291
(iSAP.Taxonomy
TaxonomySummary
p292
(dp293
g3
I1
sg4
(lp294
sg6
I0
sg7
I00
sg8
S'species'
p295
sg10
I0
sg11
S'61393'
p296
sg12
Nsg13
(dp297
S'Caracal caracal'
p298
(iSAP.Taxonomy
TaxonomySummary
p299
(dp300
g3
I1
sg4
(lp301
sg6
I0
sg7
I00
sg8
Nsg10
I0
sg11
S'61394'
p302
sg12
Nsg13
(dp303
sg98
I0
sg99
Nsg187
I0
sg188
I00
sbssg98
I0
sg99
Nsg187
I0
sg188
I00
sbsS'Prionailurus'
p304
(iSAP.Taxonomy
TaxonomySummary
p305
(dp306
g3
I2
sg4
(lp307
sg6
I0
sg7
I00
sg8
S'species'
p308
sg10
I0
sg11
S'37028'
p309
sg12
Nsg13
(dp310
S'Prionailurus bengalensis'
p311
(iSAP.Taxonomy
TaxonomySummary
p312
(dp313
g3
I1
sg4
(lp314
sg6
I0
sg7
I00
sg8
Nsg10
I0
sg11
S'37029'
p315
sg12
Nsg13
(dp316
sg98
I0
sg99
Nsg187
I0
sg188
I00
sbsS'Prionailurus viverrinus'
p317
(iSAP.Taxonomy
TaxonomySummary
p318
(dp319
g3
I1
sg4
(lp320
sg6
I0
sg7
I00
sg8
Nsg10
I0
sg11
S'61388'
p321
sg12
Nsg13
(dp322
sg98
I0
sg99
Nsg187
I0
sg188
I00
sbssg98
I0
sg99
Nsg187
I0
sg188
I00
sbssg98
I0
sg99
Nsg187
I0
sg188
I00
sbsS'Pantherinae'
p323
(iSAP.Taxonomy
TaxonomySummary
p324
(dp325
g3
I6
sg4
(lp326
sg6
I0
sg7
I00
sg8
S'genus'
p327
sg10
I0
sg11
S'338153'
p328
sg12
Nsg13
(dp329
S'Panthera'
p330
(iSAP.Taxonomy
TaxonomySummary
p331
(dp332
g3
I4
sg4
(lp333
sg6
I0
sg7
I00
sg8
S'species'
p334
sg10
I0
sg11
S'9688'
p335
sg12
Nsg13
(dp336
S'Panthera onca'
p337
(iSAP.Taxonomy
TaxonomySummary
p338
(dp339
g3
I1
sg4
(lp340
sg6
I0
sg7
I00
sg8
Nsg10
I0
sg11
S'9690'
p341
sg12
Nsg13
(dp342
sg98
I0
sg99
Nsg187
I0
sg188
I00
sbsS'Panthera pardus'
p343
(iSAP.Taxonomy
TaxonomySummary
p344
(dp345
g3
I1
sg4
(lp346
sg6
I0
sg7
I00
sg8
Nsg10
I0
sg11
S'9691'
p347
sg12
Nsg13
(dp348
sg98
I0
sg99
Nsg187
I0
sg188
I00
sbsS'Panthera leo'
p349
(iSAP.Taxonomy
TaxonomySummary
p350
(dp351
g3
I1
sg4
(lp352
sg6
I0
sg7
I00
sg8
Nsg10
I0
sg11
S'9689'
p353
sg12
Nsg13
(dp354
sg98
I0
sg99
Nsg187
I0
sg188
I00
sbsS'Panthera tigris'
p355
(iSAP.Taxonomy
TaxonomySummary
p356
(dp357
g3
I1
sg4
(lp358
sg6
I0
sg7
I00
sg8
Nsg10
I0
sg11
S'9694'
p359
sg12
Nsg13
(dp360
sg98
I0
sg99
Nsg187
I0
sg188
I00
sbssg98
I0
sg99
Nsg187
I0
sg188
I00
sbsS'Neofelis'
p361
(iSAP.Taxonomy
TaxonomySummary
p362
(dp363
g3
I1
sg4
(lp364
sg6
I0
sg7
I00
sg8
S'species'
p365
sg10
I0
sg11
S'61451'
p366
sg12
Nsg13
(dp367
S'Neofelis nebulosa'
p368
(iSAP.Taxonomy
TaxonomySummary
p369
(dp370
g3
I1
sg4
(lp371
sg6
I0
sg7
I00
sg8
Nsg10
I0
sg11
S'61452'
p372
sg12
Nsg13
(dp373
sg98
I0
sg99
Nsg187
I0
sg188
I00
sbssg98
I0
sg99
Nsg187
I0
sg188
I00
sbsg85
(iSAP.Taxonomy
TaxonomySummary
p374
(dp375
g3
I1
sg4
(lp376
sg6
I0
sg7
I00
sg8
g89
sg10
I0
sg11
g90
sg12
Nsg13
(dp377
g92
(iSAP.Taxonomy
TaxonomySummary
p378
(dp379
g3
I1
sg4
(lp380
sg6
I0
sg7
I00
sg8
Nsg10
I0
sg11
g96
sg12
Nsg13
(dp381
sg98
I0
sg99
Nsg187
I0
sg188
I00
sbssg98
I0
sg99
Nsg187
I0
sg188
I00
sbssg98
I0
sg99
Nsg187
I0
sg188
I00
sbssg98
I0
sg99
Nsg187
I0
sg188
I00
sbsS'Viverridae'
p382
(iSAP.Taxonomy
TaxonomySummary
p383
(dp384
g3
I1
sg4
(lp385
sg6
I0
sg7
I00
sg8
S'subfamily'
p386
sg10
I0
sg11
S'9673'
p387
sg12
Nsg13
(dp388
S'Viverrinae'
p389
(iSAP.Taxonomy
TaxonomySummary
p390
(dp391
g3
I1
sg4
(lp392
sg6
I0
sg7
I00
sg8
S'genus'
p393
sg10
I0
sg11
S'219115'
p394
sg12
Nsg13
(dp395
S'Civettictis'
p396
(iSAP.Taxonomy
TaxonomySummary
p397
(dp398
g3
I1
sg4
(lp399
sg6
I0
sg7
I00
sg8
S'species'
p400
sg10
I0
sg11
S'94185'
p401
sg12
Nsg13
(dp402
S'Civettictis civetta'
p403
(iSAP.Taxonomy
TaxonomySummary
p404
(dp405
g3
I1
sg4
(lp406
sg6
I0
sg7
I00
sg8
Nsg10
I0
sg11
S'94186'
p407
sg12
Nsg13
(dp408
sg98
I0
sg99
Nsg187
I0
sg188
I00
sbssg98
I0
sg99
Nsg187
I0
sg188
I00
sbssg98
I0
sg99
Nsg187
I0
sg188
I00
sbssg98
I0
sg99
Nsg187
I0
sg188
I00
sbssg98
I0
sg99
Nsg187
I0
sg188
I00
sbssg98
I0
sg99
Nsg187
I0
sg188
I00
sbssg98
I0
sg99
Nsg187
I0
sg188
I00
sbssg98
I0
sg99
Nsg187
I0
sg188
I00
sbssg98
I0
sg99
Nsg187
I0
sg188
I00
sbssg98
I0
sg99
Nsg187
I0
sg188
I00
sbssg98
I0
sg99
Nsg187
I0
sg188
I00
sbssg98
I0
sg99
Nsg187
I0
sg188
I00
sbssg98
I0
sg99
Nsg187
I0
sg188
I00
sbsg187
I0
sg188
I00
sbssg98
I1000
sg99
g100
sg187
I0
sg188
I00
sbssg98
I1000
sg99
g100
sg187
I0
sg188
I00
sbssg98
I1000
sg99
g100
sg187
I0
sg188
I00
sbssg98
I1000
sg99
g100
sg187
I0
sg188
I00
sbssg98
I1000
sg99
g100
sg187
I0
sg188
I00
sbssg98
I1000
sg99
g100
sg187
I0
sg188
I00
sbssg98
I1000
sg99
g100
sg187
I0
sg188
I00
sbssg98
I1000
sg99
g100
sg187
I0
sg188
I00
sbssg98
I1000
sg99
g100
sg187
I0
sg188
I00
sbssg98
I1000
sg99
g100
sg187
I0
sg188
I00
sbssg98
I1000
sg99
g100
sg187
I0
sg188
I00
sbssg98
I1000
sg99
g100
sg187
I0
sg188
I00
sb.