(dp1
VexampleY7IQXNshow
p2
(dp3
S'doubleToAnalyzedDict'
p4
(dp5
sS'lowestHomolProb'
p6
(dp7
VexampleY7IQXNshow_327419384
p8
F1
sVexampleY7IQXNshow_327419798
p9
F1
sVexampleY7IQXNshow_327419596
p10
F1
sVexampleY7IQXNshow_327419598
p11
F1
ssS'nrSignificantHomologues'
p12
(dp13
g8
I16
sg9
I20
sg10
I20
sg11
I19
ssS'homologueFiles'
p14
(lp15
V/Users/kasper/Desktop/sapserver2/static/user_projects/example_Y7IQXN/homologcache/exampleY7IQXNshow_327419798.pickle
p16
aV/Users/kasper/Desktop/sapserver2/static/user_projects/example_Y7IQXN/homologcache/exampleY7IQXNshow_327419598.pickle
p17
aV/Users/kasper/Desktop/sapserver2/static/user_projects/example_Y7IQXN/homologcache/exampleY7IQXNshow_327419384.pickle
p18
aV/Users/kasper/Desktop/sapserver2/static/user_projects/example_Y7IQXN/homologcache/exampleY7IQXNshow_327419596.pickle
p19
asS'avgStdevSplitFreq'
p20
(dp21
sS'gapsInQuery'
p22
(dp23
g8
I00
sg9
I01
sg10
I01
sg11
I01
ssS'treeStatFiles'
p24
(lp25
V/Users/kasper/Desktop/sapserver2/static/user_projects/example_Y7IQXN/treestatscache/exampleY7IQXNshow_327419798.pickle
p26
aV/Users/kasper/Desktop/sapserver2/static/user_projects/example_Y7IQXN/treestatscache/exampleY7IQXNshow_327419598.pickle
p27
aV/Users/kasper/Desktop/sapserver2/static/user_projects/example_Y7IQXN/treestatscache/exampleY7IQXNshow_327419384.pickle
p28
aV/Users/kasper/Desktop/sapserver2/static/user_projects/example_Y7IQXN/treestatscache/exampleY7IQXNshow_327419596.pickle
p29
asS'treeFiles'
p30
(lp31
V/Users/kasper/Desktop/sapserver2/static/user_projects/example_Y7IQXN/treescache/exampleY7IQXNshow_327419798.Barcoder.nex
p32
aV/Users/kasper/Desktop/sapserver2/static/user_projects/example_Y7IQXN/treescache/exampleY7IQXNshow_327419598.Barcoder.nex
p33
aV/Users/kasper/Desktop/sapserver2/static/user_projects/example_Y7IQXN/treescache/exampleY7IQXNshow_327419384.Barcoder.nex
p34
aV/Users/kasper/Desktop/sapserver2/static/user_projects/example_Y7IQXN/treescache/exampleY7IQXNshow_327419596.Barcoder.nex
p35
asS'significantRanks'
p36
(lp37
(S'95%'
(dp38
S'ranks'
p39
(dp40
S'family'
p41
(dp42
S'Felidae'
p43
(lp44
(dp45
S'name'
p46
g8
sS'probability'
p47
F1
sa(dp48
g46
g10
sg47
F1
sa(dp49
g46
g9
sg47
F1
sa(dp50
g46
g11
sg47
F1
sassS'class'
p51
(dp52
S'Mammalia'
p53
(lp54
(dp55
g46
g8
sg47
F1
sa(dp56
g46
g10
sg47
F1
sa(dp57
g46
g9
sg47
F1
sa(dp58
g46
g11
sg47
F1
sassS'order'
p59
(dp60
S'Carnivora'
p61
(lp62
(dp63
g46
g8
sg47
F1
sa(dp64
g46
g10
sg47
F1
sa(dp65
g46
g9
sg47
F1
sa(dp66
g46
g11
sg47
F1
sassS'phylum'
p67
(dp68
S'Chordata'
p69
(lp70
(dp71
g46
g8
sg47
F1
sa(dp72
g46
g10
sg47
F1
sa(dp73
g46
g9
sg47
F1
sa(dp74
g46
g11
sg47
F1
sassS'subspecies'
p75
(dp76
sS'genus'
p77
(dp78
S'Acinonyx'
p79
(lp80
(dp81
g46
g8
sg47
F1
sasS'Uncia'
p82
(lp83
(dp84
g46
g9
sg47
F1
sasS'Panthera'
p85
(lp86
(dp87
g46
g10
sg47
F1
sa(dp88
g46
g11
sg47
F1
sassS'species'
p89
(dp90
S'Uncia uncia'
p91
(lp92
(dp93
g46
g9
sg47
F1
sasS'Acinonyx jubatus'
p94
(lp95
(dp96
g46
g8
sg47
F1
sasS'Panthera pardus'
p97
(lp98
(dp99
g46
g11
sg47
F1
sasS'Panthera leo'
p100
(lp101
(dp102
g46
g10
sg47
F1
sasssS'normalization'
p103
(lp104
(S'all_analyzed'
p105
I4
tp106
asS'queries'
p107
(lp108
g8
ag10
ag9
ag11
astp109
asS'sequences'
p110
(lp111
VexampleY7IQXNshow_327419798
p112
aVexampleY7IQXNshow_327419598
p113
aVexampleY7IQXNshow_327419384
p114
aVexampleY7IQXNshow_695275626
p115
aVexampleY7IQXNshow_327419596
p116
asS'lowestTaxonProb'
p117
(dp118
g8
F1
sg9
F1
sg10
F1
sg11
F1
ssS'dbExhausted'
p119
(dp120
g8
I01
sg9
I01
sg10
I01
sg11
I01
ssS'taxonomyDict'
p121
(dp122
g8
(iSAP.Taxonomy
TaxonomySummary
p123
(dp124
S'count'
p125
I1000
sS'pruneList'
p126
(lp127
sS'ingroupCount'
p128
I0
sS'significanceSummary'
p129
I00
sS'level'
p130
S'superkingdom'
p131
sS'pruneLevel'
p132
I0
sS'dbid'
p133
NsS'prior'
p134
NsS'dict'
p135
(dp136
S'Eukaryota'
p137
(iSAP.Taxonomy
TaxonomySummary
p138
(dp139
g125
I1000
sg126
(lp140
sg128
I0
sg129
I00
sg130
S'kingdom'
p141
sg132
I0
sg133
S'2759'
p142
sg134
Nsg135
(dp143
S'Metazoa'
p144
(iSAP.Taxonomy
TaxonomySummary
p145
(dp146
g125
I1000
sg126
(lp147
sg128
I0
sg129
I00
sg130
S'phylum'
p148
sg132
I0
sg133
S'33208'
p149
sg134
Nsg135
(dp150
g69
(iSAP.Taxonomy
TaxonomySummary
p151
(dp152
g125
I1000
sg126
(lp153
sg128
I0
sg129
I00
sg130
S'subphylum'
p154
sg132
I0
sg133
S'7711'
p155
sg134
Nsg135
(dp156
S'Craniata'
p157
(iSAP.Taxonomy
TaxonomySummary
p158
(dp159
g125
I1000
sg126
(lp160
sg128
I0
sg129
I00
sg130
S'class'
p161
sg132
I0
sg133
S'89593'
p162
sg134
Nsg135
(dp163
g53
(iSAP.Taxonomy
TaxonomySummary
p164
(dp165
g125
I1000
sg126
(lp166
sg128
I0
sg129
I00
sg130
S'superorder'
p167
sg132
I0
sg133
S'40674'
p168
sg134
Nsg135
(dp169
S'Laurasiatheria'
p170
(iSAP.Taxonomy
TaxonomySummary
p171
(dp172
g125
I1000
sg126
(lp173
sg128
I0
sg129
I00
sg130
S'order'
p174
sg132
I0
sg133
S'314145'
p175
sg134
Nsg135
(dp176
g61
(iSAP.Taxonomy
TaxonomySummary
p177
(dp178
g125
I1000
sg126
(lp179
sg128
I0
sg129
I00
sg130
S'suborder'
p180
sg132
I0
sg133
S'33554'
p181
sg134
Nsg135
(dp182
S'Feliformia'
p183
(iSAP.Taxonomy
TaxonomySummary
p184
(dp185
g125
I1000
sg126
(lp186
sg128
I0
sg129
I00
sg130
S'family'
p187
sg132
I0
sg133
S'379583'
p188
sg134
Nsg135
(dp189
g43
(iSAP.Taxonomy
TaxonomySummary
p190
(dp191
g125
I1000
sg126
(lp192
sg128
I0
sg129
I00
sg130
S'subfamily'
p193
sg132
I0
sg133
S'9681'
p194
sg134
Nsg135
(dp195
S'Acinonychinae'
p196
(iSAP.Taxonomy
TaxonomySummary
p197
(dp198
g125
I1000
sg126
(lp199
sg128
I0
sg129
I00
sg130
S'genus'
p200
sg132
I0
sg133
S'338151'
p201
sg134
Nsg135
(dp202
g79
(iSAP.Taxonomy
TaxonomySummary
p203
(dp204
g125
I1000
sg126
(lp205
sg128
I0
sg129
I00
sg130
S'species'
p206
sg132
I0
sg133
S'32535'
p207
sg134
Nsg135
(dp208
g94
(iSAP.Taxonomy
TaxonomySummary
p209
(dp210
g125
I1000
sg126
(lp211
sg128
I0
sg129
I00
sg130
Nsg132
I0
sg133
S'32536'
p212
sg134
Nsg135
(dp213
sS'definingTaxonMonophyleticCount'
p214
I1000
sS'priorSummary'
p215
(iSAP.Taxonomy
TaxonomySummary
p216
(dp217
g125
I16
sg126
(lp218
sg128
I0
sg129
I00
sg130
S'superkingdom'
p219
sg132
I0
sg133
Nsg134
Nsg135
(dp220
S'Eukaryota'
p221
(iSAP.Taxonomy
TaxonomySummary
p222
(dp223
g125
I16
sg126
(lp224
sg128
I0
sg129
I00
sg130
S'kingdom'
p225
sg132
I0
sg133
S'2759'
p226
sg134
Nsg135
(dp227
S'Metazoa'
p228
(iSAP.Taxonomy
TaxonomySummary
p229
(dp230
g125
I16
sg126
(lp231
sg128
I0
sg129
I00
sg130
S'phylum'
p232
sg132
I0
sg133
S'33208'
p233
sg134
Nsg135
(dp234
S'Chordata'
p235
(iSAP.Taxonomy
TaxonomySummary
p236
(dp237
g125
I16
sg126
(lp238
sg128
I0
sg129
I00
sg130
S'subphylum'
p239
sg132
I0
sg133
S'7711'
p240
sg134
Nsg135
(dp241
S'Craniata'
p242
(iSAP.Taxonomy
TaxonomySummary
p243
(dp244
g125
I16
sg126
(lp245
sg128
I0
sg129
I00
sg130
S'class'
p246
sg132
I0
sg133
S'89593'
p247
sg134
Nsg135
(dp248
S'Mammalia'
p249
(iSAP.Taxonomy
TaxonomySummary
p250
(dp251
g125
I16
sg126
(lp252
sg128
I0
sg129
I00
sg130
S'superorder'
p253
sg132
I0
sg133
S'40674'
p254
sg134
Nsg135
(dp255
S'Laurasiatheria'
p256
(iSAP.Taxonomy
TaxonomySummary
p257
(dp258
g125
I16
sg126
(lp259
sg128
I0
sg129
I00
sg130
S'order'
p260
sg132
I0
sg133
S'314145'
p261
sg134
Nsg135
(dp262
S'Chiroptera'
p263
(iSAP.Taxonomy
TaxonomySummary
p264
(dp265
g125
I1
sg126
(lp266
sg128
I0
sg129
I00
sg130
S'suborder'
p267
sg132
I0
sg133
S'9397'
p268
sg134
Nsg135
(dp269
S'Microchiroptera'
p270
(iSAP.Taxonomy
TaxonomySummary
p271
(dp272
g125
I1
sg126
(lp273
sg128
I0
sg129
I00
sg130
S'family'
p274
sg132
I0
sg133
S'30560'
p275
sg134
Nsg135
(dp276
S'Vespertilionidae'
p277
(iSAP.Taxonomy
TaxonomySummary
p278
(dp279
g125
I1
sg126
(lp280
sg128
I0
sg129
I00
sg130
S'genus'
p281
sg132
I0
sg133
S'9431'
p282
sg134
Nsg135
(dp283
S'Myotis'
p284
(iSAP.Taxonomy
TaxonomySummary
p285
(dp286
g125
I1
sg126
(lp287
sg128
I0
sg129
I00
sg130
S'species'
p288
sg132
I0
sg133
S'9434'
p289
sg134
Nsg135
(dp290
S'Myotis muricola'
p291
(iSAP.Taxonomy
TaxonomySummary
p292
(dp293
g125
I1
sg126
(lp294
sg128
I0
sg129
I00
sg130
Nsg132
I0
sg133
S'159330'
p295
sg134
Nsg135
(dp296
sg214
I0
sg215
NsS'monophyleticCount'
p297
I0
sS'bayesFactors'
p298
I00
sbssg214
I0
sg215
Nsg297
I0
sg298
I00
sbssg214
I0
sg215
Nsg297
I0
sg298
I00
sbssg214
I0
sg215
Nsg297
I0
sg298
I00
sbssg214
I0
sg215
Nsg297
I0
sg298
I00
sbsS'Carnivora'
p299
(iSAP.Taxonomy
TaxonomySummary
p300
(dp301
g125
I15
sg126
(lp302
sg128
I0
sg129
I00
sg130
S'suborder'
p303
sg132
I0
sg133
S'33554'
p304
sg134
Nsg135
(dp305
S'Feliformia'
p306
(iSAP.Taxonomy
TaxonomySummary
p307
(dp308
g125
I15
sg126
(lp309
sg128
I0
sg129
I00
sg130
S'family'
p310
sg132
I0
sg133
S'379583'
p311
sg134
Nsg135
(dp312
S'Felidae'
p313
(iSAP.Taxonomy
TaxonomySummary
p314
(dp315
g125
I15
sg126
(lp316
sg128
I0
sg129
I00
sg130
S'subfamily'
p317
sg132
I0
sg133
S'9681'
p318
sg134
Nsg135
(dp319
S'Felinae'
p320
(iSAP.Taxonomy
TaxonomySummary
p321
(dp322
g125
I12
sg126
(lp323
sg128
I0
sg129
I00
sg130
S'genus'
p324
sg132
I0
sg133
S'338152'
p325
sg134
Nsg135
(dp326
S'Felis'
p327
(iSAP.Taxonomy
TaxonomySummary
p328
(dp329
g125
I2
sg126
(lp330
sg128
I0
sg129
I00
sg130
S'species'
p331
sg132
I0
sg133
S'9682'
p332
sg134
Nsg135
(dp333
S'Felis catus'
p334
(iSAP.Taxonomy
TaxonomySummary
p335
(dp336
g125
I1
sg126
(lp337
sg128
I0
sg129
I00
sg130
Nsg132
I0
sg133
S'9685'
p338
sg134
Nsg135
(dp339
sg214
I0
sg215
Nsg297
I0
sg298
I00
sbsS'Felis silvestris'
p340
(iSAP.Taxonomy
TaxonomySummary
p341
(dp342
g125
I1
sg126
(lp343
sg128
I0
sg129
I00
sg130
Nsg132
I0
sg133
S'9683'
p344
sg134
Nsg135
(dp345
sg214
I0
sg215
Nsg297
I0
sg298
I00
sbssg214
I0
sg215
Nsg297
I0
sg298
I00
sbsS'Puma'
p346
(iSAP.Taxonomy
TaxonomySummary
p347
(dp348
g125
I1
sg126
(lp349
sg128
I0
sg129
I00
sg130
S'species'
p350
sg132
I0
sg133
S'146712'
p351
sg134
Nsg135
(dp352
S'Puma concolor'
p353
(iSAP.Taxonomy
TaxonomySummary
p354
(dp355
g125
I1
sg126
(lp356
sg128
I0
sg129
I00
sg130
Nsg132
I0
sg133
S'9696'
p357
sg134
Nsg135
(dp358
sg214
I0
sg215
Nsg297
I0
sg298
I00
sbssg214
I0
sg215
Nsg297
I0
sg298
I00
sbsS'Profelis'
p359
(iSAP.Taxonomy
TaxonomySummary
p360
(dp361
g125
I1
sg126
(lp362
sg128
I0
sg129
I00
sg130
S'species'
p363
sg132
I0
sg133
S'61411'
p364
sg134
Nsg135
(dp365
S'Profelis aurata'
p366
(iSAP.Taxonomy
TaxonomySummary
p367
(dp368
g125
I1
sg126
(lp369
sg128
I0
sg129
I00
sg130
Nsg132
I0
sg133
S'61412'
p370
sg134
Nsg135
(dp371
sg214
I0
sg215
Nsg297
I0
sg298
I00
sbssg214
I0
sg215
Nsg297
I0
sg298
I00
sbsS'Catopuma'
p372
(iSAP.Taxonomy
TaxonomySummary
p373
(dp374
g125
I1
sg126
(lp375
sg128
I0
sg129
I00
sg130
S'species'
p376
sg132
I0
sg133
S'61453'
p377
sg134
Nsg135
(dp378
S'Catopuma temminckii'
p379
(iSAP.Taxonomy
TaxonomySummary
p380
(dp381
g125
I1
sg126
(lp382
sg128
I0
sg129
I00
sg130
Nsg132
I0
sg133
S'61455'
p383
sg134
Nsg135
(dp384
sg214
I0
sg215
Nsg297
I0
sg298
I00
sbssg214
I0
sg215
Nsg297
I0
sg298
I00
sbsS'Lynx'
p385
(iSAP.Taxonomy
TaxonomySummary
p386
(dp387
g125
I3
sg126
(lp388
sg128
I0
sg129
I00
sg130
S'species'
p389
sg132
I0
sg133
S'13124'
p390
sg134
Nsg135
(dp391
S'Lynx canadensis'
p392
(iSAP.Taxonomy
TaxonomySummary
p393
(dp394
g125
I1
sg126
(lp395
sg128
I0
sg129
I00
sg130
Nsg132
I0
sg133
S'61383'
p396
sg134
Nsg135
(dp397
sg214
I0
sg215
Nsg297
I0
sg298
I00
sbsS'Lynx rufus'
p398
(iSAP.Taxonomy
TaxonomySummary
p399
(dp400
g125
I1
sg126
(lp401
sg128
I0
sg129
I00
sg130
Nsg132
I0
sg133
S'61384'
p402
sg134
Nsg135
(dp403
sg214
I0
sg215
Nsg297
I0
sg298
I00
sbsS'Lynx lynx'
p404
(iSAP.Taxonomy
TaxonomySummary
p405
(dp406
g125
I1
sg126
(lp407
sg128
I0
sg129
I00
sg130
Nsg132
I0
sg133
S'13125'
p408
sg134
Nsg135
(dp409
sg214
I0
sg215
Nsg297
I0
sg298
I00
sbssg214
I0
sg215
Nsg297
I0
sg298
I00
sbsS'Caracal'
p410
(iSAP.Taxonomy
TaxonomySummary
p411
(dp412
g125
I1
sg126
(lp413
sg128
I0
sg129
I00
sg130
S'species'
p414
sg132
I0
sg133
S'61393'
p415
sg134
Nsg135
(dp416
S'Caracal caracal'
p417
(iSAP.Taxonomy
TaxonomySummary
p418
(dp419
g125
I1
sg126
(lp420
sg128
I0
sg129
I00
sg130
Nsg132
I0
sg133
S'61394'
p421
sg134
Nsg135
(dp422
sg214
I0
sg215
Nsg297
I0
sg298
I00
sbssg214
I0
sg215
Nsg297
I0
sg298
I00
sbsS'Prionailurus'
p423
(iSAP.Taxonomy
TaxonomySummary
p424
(dp425
g125
I3
sg126
(lp426
sg128
I0
sg129
I00
sg130
S'species'
p427
sg132
I0
sg133
S'37028'
p428
sg134
Nsg135
(dp429
S'Prionailurus bengalensis'
p430
(iSAP.Taxonomy
TaxonomySummary
p431
(dp432
g125
I1
sg126
(lp433
sg128
I0
sg129
I00
sg130
Nsg132
I0
sg133
S'37029'
p434
sg134
Nsg135
(dp435
sg214
I0
sg215
Nsg297
I0
sg298
I00
sbsS'Prionailurus planiceps'
p436
(iSAP.Taxonomy
TaxonomySummary
p437
(dp438
g125
I1
sg126
(lp439
sg128
I0
sg129
I00
sg130
Nsg132
I0
sg133
S'61403'
p440
sg134
Nsg135
(dp441
sg214
I0
sg215
Nsg297
I0
sg298
I00
sbsS'Prionailurus viverrinus'
p442
(iSAP.Taxonomy
TaxonomySummary
p443
(dp444
g125
I1
sg126
(lp445
sg128
I0
sg129
I00
sg130
Nsg132
I0
sg133
S'61388'
p446
sg134
Nsg135
(dp447
sg214
I0
sg215
Nsg297
I0
sg298
I00
sbssg214
I0
sg215
Nsg297
I0
sg298
I00
sbssg214
I0
sg215
Nsg297
I0
sg298
I00
sbsg196
(iSAP.Taxonomy
TaxonomySummary
p448
(dp449
g125
I1
sg126
(lp450
sg128
I0
sg129
I00
sg130
g200
sg132
I0
sg133
g201
sg134
Nsg135
(dp451
g79
(iSAP.Taxonomy
TaxonomySummary
p452
(dp453
g125
I1
sg126
(lp454
sg128
I0
sg129
I00
sg130
g206
sg132
I0
sg133
g207
sg134
Nsg135
(dp455
g94
(iSAP.Taxonomy
TaxonomySummary
p456
(dp457
g125
I1
sg126
(lp458
sg128
I0
sg129
I00
sg130
Nsg132
I0
sg133
g212
sg134
Nsg135
(dp459
sg214
I0
sg215
Nsg297
I0
sg298
I00
sbssg214
I0
sg215
Nsg297
I0
sg298
I00
sbssg214
I0
sg215
Nsg297
I0
sg298
I00
sbsS'Pantherinae'
p460
(iSAP.Taxonomy
TaxonomySummary
p461
(dp462
g125
I2
sg126
(lp463
sg128
I0
sg129
I00
sg130
S'genus'
p464
sg132
I0
sg133
S'338153'
p465
sg134
Nsg135
(dp466
S'Panthera'
p467
(iSAP.Taxonomy
TaxonomySummary
p468
(dp469
g125
I1
sg126
(lp470
sg128
I0
sg129
I00
sg130
S'species'
p471
sg132
I0
sg133
S'9688'
p472
sg134
Nsg135
(dp473
S'Panthera tigris'
p474
(iSAP.Taxonomy
TaxonomySummary
p475
(dp476
g125
I1
sg126
(lp477
sg128
I0
sg129
I00
sg130
Nsg132
I0
sg133
S'9694'
p478
sg134
Nsg135
(dp479
sg214
I0
sg215
Nsg297
I0
sg298
I00
sbssg214
I0
sg215
Nsg297
I0
sg298
I00
sbsS'Neofelis'
p480
(iSAP.Taxonomy
TaxonomySummary
p481
(dp482
g125
I1
sg126
(lp483
sg128
I0
sg129
I00
sg130
S'species'
p484
sg132
I0
sg133
S'61451'
p485
sg134
Nsg135
(dp486
S'Neofelis nebulosa'
p487
(iSAP.Taxonomy
TaxonomySummary
p488
(dp489
g125
I1
sg126
(lp490
sg128
I0
sg129
I00
sg130
Nsg132
I0
sg133
S'61452'
p491
sg134
Nsg135
(dp492
sg214
I0
sg215
Nsg297
I0
sg298
I00
sbssg214
I0
sg215
Nsg297
I0
sg298
I00
sbssg214
I0
sg215
Nsg297
I0
sg298
I00
sbssg214
I0
sg215
Nsg297
I0
sg298
I00
sbssg214
I0
sg215
Nsg297
I0
sg298
I00
sbssg214
I0
sg215
Nsg297
I0
sg298
I00
sbssg214
I0
sg215
Nsg297
I0
sg298
I00
sbssg214
I0
sg215
Nsg297
I0
sg298
I00
sbssg214
I0
sg215
Nsg297
I0
sg298
I00
sbssg214
I0
sg215
Nsg297
I0
sg298
I00
sbssg214
I0
sg215
Nsg297
I0
sg298
I00
sbssg214
I0
sg215
Nsg297
I0
sg298
I00
sbssg214
I0
sg215
Nsg297
I0
sg298
I00
sbsg297
I0
sg298
I00
sbssg214
I1000
sg215
g216
sg297
I0
sg298
I00
sbssg214
I1000
sg215
g216
sg297
I0
sg298
I00
sbssg214
I1000
sg215
g216
sg297
I0
sg298
I00
sbssg214
I1000
sg215
g216
sg297
I0
sg298
I00
sbssg214
I1000
sg215
g216
sg297
I0
sg298
I00
sbssg214
I1000
sg215
g216
sg297
I0
sg298
I00
sbssg214
I1000
sg215
g216
sg297
I0
sg298
I00
sbssg214
I1000
sg215
g216
sg297
I0
sg298
I00
sbssg214
I1000
sg215
g216
sg297
I0
sg298
I00
sbssg214
I1000
sg215
g216
sg297
I0
sg298
I00
sbssg214
I1000
sg215
g216
sg297
I0
sg298
I00
sbssg214
I1000
sg215
g216
sg297
I0
sg298
I00
sbsg10
(iSAP.Taxonomy
TaxonomySummary
p493
(dp494
g125
I1000
sg126
(lp495
sg128
I0
sg129
I00
sg130
S'superkingdom'
p496
sg132
I0
sg133
Nsg134
Nsg135
(dp497
S'Eukaryota'
p498
(iSAP.Taxonomy
TaxonomySummary
p499
(dp500
g125
I1000
sg126
(lp501
sg128
I0
sg129
I00
sg130
S'kingdom'
p502
sg132
I0
sg133
S'2759'
p503
sg134
Nsg135
(dp504
S'Metazoa'
p505
(iSAP.Taxonomy
TaxonomySummary
p506
(dp507
g125
I1000
sg126
(lp508
sg128
I0
sg129
I00
sg130
S'phylum'
p509
sg132
I0
sg133
S'33208'
p510
sg134
Nsg135
(dp511
S'Chordata'
p512
(iSAP.Taxonomy
TaxonomySummary
p513
(dp514
g125
I1000
sg126
(lp515
sg128
I0
sg129
I00
sg130
S'subphylum'
p516
sg132
I0
sg133
S'7711'
p517
sg134
Nsg135
(dp518
S'Craniata'
p519
(iSAP.Taxonomy
TaxonomySummary
p520
(dp521
g125
I1000
sg126
(lp522
sg128
I0
sg129
I00
sg130
S'class'
p523
sg132
I0
sg133
S'89593'
p524
sg134
Nsg135
(dp525
S'Mammalia'
p526
(iSAP.Taxonomy
TaxonomySummary
p527
(dp528
g125
I1000
sg126
(lp529
sg128
I0
sg129
I00
sg130
S'superorder'
p530
sg132
I0
sg133
S'40674'
p531
sg134
Nsg135
(dp532
S'Laurasiatheria'
p533
(iSAP.Taxonomy
TaxonomySummary
p534
(dp535
g125
I1000
sg126
(lp536
sg128
I0
sg129
I00
sg130
S'order'
p537
sg132
I0
sg133
S'314145'
p538
sg134
Nsg135
(dp539
S'Carnivora'
p540
(iSAP.Taxonomy
TaxonomySummary
p541
(dp542
g125
I1000
sg126
(lp543
sg128
I0
sg129
I00
sg130
S'suborder'
p544
sg132
I0
sg133
S'33554'
p545
sg134
Nsg135
(dp546
S'Feliformia'
p547
(iSAP.Taxonomy
TaxonomySummary
p548
(dp549
g125
I1000
sg126
(lp550
sg128
I0
sg129
I00
sg130
S'family'
p551
sg132
I0
sg133
S'379583'
p552
sg134
Nsg135
(dp553
S'Felidae'
p554
(iSAP.Taxonomy
TaxonomySummary
p555
(dp556
g125
I1000
sg126
(lp557
sg128
I0
sg129
I00
sg130
S'subfamily'
p558
sg132
I0
sg133
S'9681'
p559
sg134
Nsg135
(dp560
S'Pantherinae'
p561
(iSAP.Taxonomy
TaxonomySummary
p562
(dp563
g125
I1000
sg126
(lp564
sg128
I0
sg129
I00
sg130
S'genus'
p565
sg132
I0
sg133
S'338153'
p566
sg134
Nsg135
(dp567
g85
(iSAP.Taxonomy
TaxonomySummary
p568
(dp569
g125
I1000
sg126
(lp570
sg128
I0
sg129
I00
sg130
S'species'
p571
sg132
I0
sg133
S'9688'
p572
sg134
Nsg135
(dp573
g100
(iSAP.Taxonomy
TaxonomySummary
p574
(dp575
g125
I1000
sg126
(lp576
sg128
I0
sg129
I00
sg130
Nsg132
I0
sg133
S'9689'
p577
sg134
Nsg135
(dp578
sg214
I1000
sg215
(iSAP.Taxonomy
TaxonomySummary
p579
(dp580
g125
I20
sg126
(lp581
sg128
I0
sg129
I00
sg130
S'superkingdom'
p582
sg132
I0
sg133
Nsg134
Nsg135
(dp583
S'Eukaryota'
p584
(iSAP.Taxonomy
TaxonomySummary
p585
(dp586
g125
I20
sg126
(lp587
sg128
I0
sg129
I00
sg130
S'kingdom'
p588
sg132
I0
sg133
S'2759'
p589
sg134
Nsg135
(dp590
S'Metazoa'
p591
(iSAP.Taxonomy
TaxonomySummary
p592
(dp593
g125
I20
sg126
(lp594
sg128
I0
sg129
I00
sg130
S'phylum'
p595
sg132
I0
sg133
S'33208'
p596
sg134
Nsg135
(dp597
S'Chordata'
p598
(iSAP.Taxonomy
TaxonomySummary
p599
(dp600
g125
I20
sg126
(lp601
sg128
I0
sg129
I00
sg130
S'subphylum'
p602
sg132
I0
sg133
S'7711'
p603
sg134
Nsg135
(dp604
S'Craniata'
p605
(iSAP.Taxonomy
TaxonomySummary
p606
(dp607
g125
I20
sg126
(lp608
sg128
I0
sg129
I00
sg130
S'class'
p609
sg132
I0
sg133
S'89593'
p610
sg134
Nsg135
(dp611
S'Mammalia'
p612
(iSAP.Taxonomy
TaxonomySummary
p613
(dp614
g125
I20
sg126
(lp615
sg128
I0
sg129
I00
sg130
S'superorder'
p616
sg132
I0
sg133
S'40674'
p617
sg134
Nsg135
(dp618
S'Laurasiatheria'
p619
(iSAP.Taxonomy
TaxonomySummary
p620
(dp621
g125
I20
sg126
(lp622
sg128
I0
sg129
I00
sg130
S'order'
p623
sg132
I0
sg133
S'314145'
p624
sg134
Nsg135
(dp625
S'Chiroptera'
p626
(iSAP.Taxonomy
TaxonomySummary
p627
(dp628
g125
I1
sg126
(lp629
sg128
I0
sg129
I00
sg130
S'suborder'
p630
sg132
I0
sg133
S'9397'
p631
sg134
Nsg135
(dp632
S'Microchiroptera'
p633
(iSAP.Taxonomy
TaxonomySummary
p634
(dp635
g125
I1
sg126
(lp636
sg128
I0
sg129
I00
sg130
S'family'
p637
sg132
I0
sg133
S'30560'
p638
sg134
Nsg135
(dp639
S'Molossidae'
p640
(iSAP.Taxonomy
TaxonomySummary
p641
(dp642
g125
I1
sg126
(lp643
sg128
I0
sg129
I00
sg130
S'genus'
p644
sg132
I0
sg133
S'9436'
p645
sg134
Nsg135
(dp646
S'Eumops'
p647
(iSAP.Taxonomy
TaxonomySummary
p648
(dp649
g125
I1
sg126
(lp650
sg128
I0
sg129
I00
sg130
S'species'
p651
sg132
I0
sg133
S'27618'
p652
sg134
Nsg135
(dp653
S'Eumops auripendulus'
p654
(iSAP.Taxonomy
TaxonomySummary
p655
(dp656
g125
I1
sg126
(lp657
sg128
I0
sg129
I00
sg130
Nsg132
I0
sg133
S'124747'
p658
sg134
Nsg135
(dp659
sg214
I0
sg215
Nsg297
I0
sg298
I00
sbssg214
I0
sg215
Nsg297
I0
sg298
I00
sbssg214
I0
sg215
Nsg297
I0
sg298
I00
sbssg214
I0
sg215
Nsg297
I0
sg298
I00
sbssg214
I0
sg215
Nsg297
I0
sg298
I00
sbsS'Carnivora'
p660
(iSAP.Taxonomy
TaxonomySummary
p661
(dp662
g125
I19
sg126
(lp663
sg128
I0
sg129
I00
sg130
S'suborder'
p664
sg132
I0
sg133
S'33554'
p665
sg134
Nsg135
(dp666
S'Feliformia'
p667
(iSAP.Taxonomy
TaxonomySummary
p668
(dp669
g125
I19
sg126
(lp670
sg128
I0
sg129
I00
sg130
S'family'
p671
sg132
I0
sg133
S'379583'
p672
sg134
Nsg135
(dp673
S'Felidae'
p674
(iSAP.Taxonomy
TaxonomySummary
p675
(dp676
g125
I19
sg126
(lp677
sg128
I0
sg129
I00
sg130
S'subfamily'
p678
sg132
I0
sg133
S'9681'
p679
sg134
Nsg135
(dp680
S'Felinae'
p681
(iSAP.Taxonomy
TaxonomySummary
p682
(dp683
g125
I13
sg126
(lp684
sg128
I0
sg129
I00
sg130
S'genus'
p685
sg132
I0
sg133
S'338152'
p686
sg134
Nsg135
(dp687
S'Felis'
p688
(iSAP.Taxonomy
TaxonomySummary
p689
(dp690
g125
I3
sg126
(lp691
sg128
I0
sg129
I00
sg130
S'species'
p692
sg132
I0
sg133
S'9682'
p693
sg134
Nsg135
(dp694
S'Felis chaus'
p695
(iSAP.Taxonomy
TaxonomySummary
p696
(dp697
g125
I1
sg126
(lp698
sg128
I0
sg129
I00
sg130
Nsg132
I0
sg133
S'61376'
p699
sg134
Nsg135
(dp700
sg214
I0
sg215
Nsg297
I0
sg298
I00
sbsS'Felis catus'
p701
(iSAP.Taxonomy
TaxonomySummary
p702
(dp703
g125
I1
sg126
(lp704
sg128
I0
sg129
I00
sg130
Nsg132
I0
sg133
S'9685'
p705
sg134
Nsg135
(dp706
sg214
I0
sg215
Nsg297
I0
sg298
I00
sbsS'Felis silvestris'
p707
(iSAP.Taxonomy
TaxonomySummary
p708
(dp709
g125
I1
sg126
(lp710
sg128
I0
sg129
I00
sg130
Nsg132
I0
sg133
S'9683'
p711
sg134
Nsg135
(dp712
sg214
I0
sg215
Nsg297
I0
sg298
I00
sbssg214
I0
sg215
Nsg297
I0
sg298
I00
sbsS'Leptailurus'
p713
(iSAP.Taxonomy
TaxonomySummary
p714
(dp715
g125
I1
sg126
(lp716
sg128
I0
sg129
I00
sg130
S'species'
p717
sg132
I0
sg133
S'61404'
p718
sg134
Nsg135
(dp719
S'Leptailurus serval'
p720
(iSAP.Taxonomy
TaxonomySummary
p721
(dp722
g125
I1
sg126
(lp723
sg128
I0
sg129
I00
sg130
Nsg132
I0
sg133
S'61405'
p724
sg134
Nsg135
(dp725
sg214
I0
sg215
Nsg297
I0
sg298
I00
sbssg214
I0
sg215
Nsg297
I0
sg298
I00
sbsS'Profelis'
p726
(iSAP.Taxonomy
TaxonomySummary
p727
(dp728
g125
I1
sg126
(lp729
sg128
I0
sg129
I00
sg130
S'species'
p730
sg132
I0
sg133
S'61411'
p731
sg134
Nsg135
(dp732
S'Profelis aurata'
p733
(iSAP.Taxonomy
TaxonomySummary
p734
(dp735
g125
I1
sg126
(lp736
sg128
I0
sg129
I00
sg130
Nsg132
I0
sg133
S'61412'
p737
sg134
Nsg135
(dp738
sg214
I0
sg215
Nsg297
I0
sg298
I00
sbssg214
I0
sg215
Nsg297
I0
sg298
I00
sbsS'Puma'
p739
(iSAP.Taxonomy
TaxonomySummary
p740
(dp741
g125
I1
sg126
(lp742
sg128
I0
sg129
I00
sg130
S'species'
p743
sg132
I0
sg133
S'146712'
p744
sg134
Nsg135
(dp745
S'Puma concolor'
p746
(iSAP.Taxonomy
TaxonomySummary
p747
(dp748
g125
I1
sg126
(lp749
sg128
I0
sg129
I00
sg130
Nsg132
I0
sg133
S'9696'
p750
sg134
Nsg135
(dp751
sg214
I0
sg215
Nsg297
I0
sg298
I00
sbssg214
I0
sg215
Nsg297
I0
sg298
I00
sbsS'Catopuma'
p752
(iSAP.Taxonomy
TaxonomySummary
p753
(dp754
g125
I1
sg126
(lp755
sg128
I0
sg129
I00
sg130
S'species'
p756
sg132
I0
sg133
S'61453'
p757
sg134
Nsg135
(dp758
S'Catopuma temminckii'
p759
(iSAP.Taxonomy
TaxonomySummary
p760
(dp761
g125
I1
sg126
(lp762
sg128
I0
sg129
I00
sg130
Nsg132
I0
sg133
S'61455'
p763
sg134
Nsg135
(dp764
sg214
I0
sg215
Nsg297
I0
sg298
I00
sbssg214
I0
sg215
Nsg297
I0
sg298
I00
sbsS'Lynx'
p765
(iSAP.Taxonomy
TaxonomySummary
p766
(dp767
g125
I3
sg126
(lp768
sg128
I0
sg129
I00
sg130
S'species'
p769
sg132
I0
sg133
S'13124'
p770
sg134
Nsg135
(dp771
S'Lynx canadensis'
p772
(iSAP.Taxonomy
TaxonomySummary
p773
(dp774
g125
I1
sg126
(lp775
sg128
I0
sg129
I00
sg130
Nsg132
I0
sg133
S'61383'
p776
sg134
Nsg135
(dp777
sg214
I0
sg215
Nsg297
I0
sg298
I00
sbsS'Lynx rufus'
p778
(iSAP.Taxonomy
TaxonomySummary
p779
(dp780
g125
I1
sg126
(lp781
sg128
I0
sg129
I00
sg130
Nsg132
I0
sg133
S'61384'
p782
sg134
Nsg135
(dp783
sg214
I0
sg215
Nsg297
I0
sg298
I00
sbsS'Lynx lynx'
p784
(iSAP.Taxonomy
TaxonomySummary
p785
(dp786
g125
I1
sg126
(lp787
sg128
I0
sg129
I00
sg130
Nsg132
I0
sg133
S'13125'
p788
sg134
Nsg135
(dp789
sg214
I0
sg215
Nsg297
I0
sg298
I00
sbssg214
I0
sg215
Nsg297
I0
sg298
I00
sbsS'Caracal'
p790
(iSAP.Taxonomy
TaxonomySummary
p791
(dp792
g125
I1
sg126
(lp793
sg128
I0
sg129
I00
sg130
S'species'
p794
sg132
I0
sg133
S'61393'
p795
sg134
Nsg135
(dp796
S'Caracal caracal'
p797
(iSAP.Taxonomy
TaxonomySummary
p798
(dp799
g125
I1
sg126
(lp800
sg128
I0
sg129
I00
sg130
Nsg132
I0
sg133
S'61394'
p801
sg134
Nsg135
(dp802
sg214
I0
sg215
Nsg297
I0
sg298
I00
sbssg214
I0
sg215
Nsg297
I0
sg298
I00
sbsS'Prionailurus'
p803
(iSAP.Taxonomy
TaxonomySummary
p804
(dp805
g125
I2
sg126
(lp806
sg128
I0
sg129
I00
sg130
S'species'
p807
sg132
I0
sg133
S'37028'
p808
sg134
Nsg135
(dp809
S'Prionailurus bengalensis'
p810
(iSAP.Taxonomy
TaxonomySummary
p811
(dp812
g125
I1
sg126
(lp813
sg128
I0
sg129
I00
sg130
Nsg132
I0
sg133
S'37029'
p814
sg134
Nsg135
(dp815
sg214
I0
sg215
Nsg297
I0
sg298
I00
sbsS'Prionailurus viverrinus'
p816
(iSAP.Taxonomy
TaxonomySummary
p817
(dp818
g125
I1
sg126
(lp819
sg128
I0
sg129
I00
sg130
Nsg132
I0
sg133
S'61388'
p820
sg134
Nsg135
(dp821
sg214
I0
sg215
Nsg297
I0
sg298
I00
sbssg214
I0
sg215
Nsg297
I0
sg298
I00
sbssg214
I0
sg215
Nsg297
I0
sg298
I00
sbsS'Pantherinae'
p822
(iSAP.Taxonomy
TaxonomySummary
p823
(dp824
g125
I6
sg126
(lp825
sg128
I0
sg129
I00
sg130
S'genus'
p826
sg132
I0
sg133
S'338153'
p827
sg134
Nsg135
(dp828
S'Panthera'
p829
(iSAP.Taxonomy
TaxonomySummary
p830
(dp831
g125
I4
sg126
(lp832
sg128
I0
sg129
I00
sg130
S'species'
p833
sg132
I0
sg133
S'9688'
p834
sg134
Nsg135
(dp835
S'Panthera onca'
p836
(iSAP.Taxonomy
TaxonomySummary
p837
(dp838
g125
I1
sg126
(lp839
sg128
I0
sg129
I00
sg130
Nsg132
I0
sg133
S'9690'
p840
sg134
Nsg135
(dp841
sg214
I0
sg215
Nsg297
I0
sg298
I00
sbsS'Panthera pardus'
p842
(iSAP.Taxonomy
TaxonomySummary
p843
(dp844
g125
I1
sg126
(lp845
sg128
I0
sg129
I00
sg130
Nsg132
I0
sg133
S'9691'
p846
sg134
Nsg135
(dp847
sg214
I0
sg215
Nsg297
I0
sg298
I00
sbsg100
(iSAP.Taxonomy
TaxonomySummary
p848
(dp849
g125
I1
sg126
(lp850
sg128
I0
sg129
I00
sg130
Nsg132
I0
sg133
g577
sg134
Nsg135
(dp851
sg214
I0
sg215
Nsg297
I0
sg298
I00
sbsS'Panthera tigris'
p852
(iSAP.Taxonomy
TaxonomySummary
p853
(dp854
g125
I1
sg126
(lp855
sg128
I0
sg129
I00
sg130
Nsg132
I0
sg133
S'9694'
p856
sg134
Nsg135
(dp857
sg214
I0
sg215
Nsg297
I0
sg298
I00
sbssg214
I0
sg215
Nsg297
I0
sg298
I00
sbsS'Neofelis'
p858
(iSAP.Taxonomy
TaxonomySummary
p859
(dp860
g125
I1
sg126
(lp861
sg128
I0
sg129
I00
sg130
S'species'
p862
sg132
I0
sg133
S'61451'
p863
sg134
Nsg135
(dp864
S'Neofelis nebulosa'
p865
(iSAP.Taxonomy
TaxonomySummary
p866
(dp867
g125
I1
sg126
(lp868
sg128
I0
sg129
I00
sg130
Nsg132
I0
sg133
S'61452'
p869
sg134
Nsg135
(dp870
sg214
I0
sg215
Nsg297
I0
sg298
I00
sbssg214
I0
sg215
Nsg297
I0
sg298
I00
sbsS'Uncia'
p871
(iSAP.Taxonomy
TaxonomySummary
p872
(dp873
g125
I1
sg126
(lp874
sg128
I0
sg129
I00
sg130
S'species'
p875
sg132
I0
sg133
S'29063'
p876
sg134
Nsg135
(dp877
S'Uncia uncia'
p878
(iSAP.Taxonomy
TaxonomySummary
p879
(dp880
g125
I1
sg126
(lp881
sg128
I0
sg129
I00
sg130
Nsg132
I0
sg133
S'29064'
p882
sg134
Nsg135
(dp883
sg214
I0
sg215
Nsg297
I0
sg298
I00
sbssg214
I0
sg215
Nsg297
I0
sg298
I00
sbssg214
I0
sg215
Nsg297
I0
sg298
I00
sbssg214
I0
sg215
Nsg297
I0
sg298
I00
sbssg214
I0
sg215
Nsg297
I0
sg298
I00
sbssg214
I0
sg215
Nsg297
I0
sg298
I00
sbssg214
I0
sg215
Nsg297
I0
sg298
I00
sbssg214
I0
sg215
Nsg297
I0
sg298
I00
sbssg214
I0
sg215
Nsg297
I0
sg298
I00
sbssg214
I0
sg215
Nsg297
I0
sg298
I00
sbssg214
I0
sg215
Nsg297
I0
sg298
I00
sbssg214
I0
sg215
Nsg297
I0
sg298
I00
sbssg214
I0
sg215
Nsg297
I0
sg298
I00
sbsg297
I0
sg298
I00
sbssg214
I1000
sg215
g579
sg297
I0
sg298
I00
sbssg214
I1000
sg215
g579
sg297
I0
sg298
I00
sbssg214
I1000
sg215
g579
sg297
I0
sg298
I00
sbssg214
I1000
sg215
g579
sg297
I0
sg298
I00
sbssg214
I1000
sg215
g579
sg297
I0
sg298
I00
sbssg214
I1000
sg215
g579
sg297
I0
sg298
I00
sbssg214
I1000
sg215
g579
sg297
I0
sg298
I00
sbssg214
I1000
sg215
g579
sg297
I0
sg298
I00
sbssg214
I1000
sg215
g579
sg297
I0
sg298
I00
sbssg214
I1000
sg215
g579
sg297
I0
sg298
I00
sbssg214
I1000
sg215
g579
sg297
I0
sg298
I00
sbssg214
I1000
sg215
g579
sg297
I0
sg298
I00
sbsg9
(iSAP.Taxonomy
TaxonomySummary
p884
(dp885
g125
I1000
sg126
(lp886
sg128
I0
sg129
I00
sg130
S'superkingdom'
p887
sg132
I0
sg133
Nsg134
Nsg135
(dp888
S'Eukaryota'
p889
(iSAP.Taxonomy
TaxonomySummary
p890
(dp891
g125
I1000
sg126
(lp892
sg128
I0
sg129
I00
sg130
S'kingdom'
p893
sg132
I0
sg133
S'2759'
p894
sg134
Nsg135
(dp895
S'Metazoa'
p896
(iSAP.Taxonomy
TaxonomySummary
p897
(dp898
g125
I1000
sg126
(lp899
sg128
I0
sg129
I00
sg130
S'phylum'
p900
sg132
I0
sg133
S'33208'
p901
sg134
Nsg135
(dp902
S'Chordata'
p903
(iSAP.Taxonomy
TaxonomySummary
p904
(dp905
g125
I1000
sg126
(lp906
sg128
I0
sg129
I00
sg130
S'subphylum'
p907
sg132
I0
sg133
S'7711'
p908
sg134
Nsg135
(dp909
S'Craniata'
p910
(iSAP.Taxonomy
TaxonomySummary
p911
(dp912
g125
I1000
sg126
(lp913
sg128
I0
sg129
I00
sg130
S'class'
p914
sg132
I0
sg133
S'89593'
p915
sg134
Nsg135
(dp916
S'Mammalia'
p917
(iSAP.Taxonomy
TaxonomySummary
p918
(dp919
g125
I1000
sg126
(lp920
sg128
I0
sg129
I00
sg130
S'superorder'
p921
sg132
I0
sg133
S'40674'
p922
sg134
Nsg135
(dp923
S'Laurasiatheria'
p924
(iSAP.Taxonomy
TaxonomySummary
p925
(dp926
g125
I1000
sg126
(lp927
sg128
I0
sg129
I00
sg130
S'order'
p928
sg132
I0
sg133
S'314145'
p929
sg134
Nsg135
(dp930
S'Carnivora'
p931
(iSAP.Taxonomy
TaxonomySummary
p932
(dp933
g125
I1000
sg126
(lp934
sg128
I0
sg129
I00
sg130
S'suborder'
p935
sg132
I0
sg133
S'33554'
p936
sg134
Nsg135
(dp937
S'Feliformia'
p938
(iSAP.Taxonomy
TaxonomySummary
p939
(dp940
g125
I1000
sg126
(lp941
sg128
I0
sg129
I00
sg130
S'family'
p942
sg132
I0
sg133
S'379583'
p943
sg134
Nsg135
(dp944
S'Felidae'
p945
(iSAP.Taxonomy
TaxonomySummary
p946
(dp947
g125
I1000
sg126
(lp948
sg128
I0
sg129
I00
sg130
S'subfamily'
p949
sg132
I0
sg133
S'9681'
p950
sg134
Nsg135
(dp951
S'Pantherinae'
p952
(iSAP.Taxonomy
TaxonomySummary
p953
(dp954
g125
I1000
sg126
(lp955
sg128
I0
sg129
I00
sg130
S'genus'
p956
sg132
I0
sg133
S'338153'
p957
sg134
Nsg135
(dp958
g82
(iSAP.Taxonomy
TaxonomySummary
p959
(dp960
g125
I1000
sg126
(lp961
sg128
I0
sg129
I00
sg130
S'species'
p962
sg132
I0
sg133
S'29063'
p963
sg134
Nsg135
(dp964
g91
(iSAP.Taxonomy
TaxonomySummary
p965
(dp966
g125
I1000
sg126
(lp967
sg128
I0
sg129
I00
sg130
Nsg132
I0
sg133
S'29064'
p968
sg134
Nsg135
(dp969
sg214
I1000
sg215
(iSAP.Taxonomy
TaxonomySummary
p970
(dp971
g125
I20
sg126
(lp972
sg128
I0
sg129
I00
sg130
S'superkingdom'
p973
sg132
I0
sg133
Nsg134
Nsg135
(dp974
S'Eukaryota'
p975
(iSAP.Taxonomy
TaxonomySummary
p976
(dp977
g125
I20
sg126
(lp978
sg128
I0
sg129
I00
sg130
S'kingdom'
p979
sg132
I0
sg133
S'2759'
p980
sg134
Nsg135
(dp981
S'Metazoa'
p982
(iSAP.Taxonomy
TaxonomySummary
p983
(dp984
g125
I20
sg126
(lp985
sg128
I0
sg129
I00
sg130
S'phylum'
p986
sg132
I0
sg133
S'33208'
p987
sg134
Nsg135
(dp988
S'Chordata'
p989
(iSAP.Taxonomy
TaxonomySummary
p990
(dp991
g125
I20
sg126
(lp992
sg128
I0
sg129
I00
sg130
S'subphylum'
p993
sg132
I0
sg133
S'7711'
p994
sg134
Nsg135
(dp995
S'Craniata'
p996
(iSAP.Taxonomy
TaxonomySummary
p997
(dp998
g125
I20
sg126
(lp999
sg128
I0
sg129
I00
sg130
S'class'
p1000
sg132
I0
sg133
S'89593'
p1001
sg134
Nsg135
(dp1002
S'Mammalia'
p1003
(iSAP.Taxonomy
TaxonomySummary
p1004
(dp1005
g125
I20
sg126
(lp1006
sg128
I0
sg129
I00
sg130
S'superorder'
p1007
sg132
I0
sg133
S'40674'
p1008
sg134
Nsg135
(dp1009
S'Laurasiatheria'
p1010
(iSAP.Taxonomy
TaxonomySummary
p1011
(dp1012
g125
I20
sg126
(lp1013
sg128
I0
sg129
I00
sg130
S'order'
p1014
sg132
I0
sg133
S'314145'
p1015
sg134
Nsg135
(dp1016
S'Carnivora'
p1017
(iSAP.Taxonomy
TaxonomySummary
p1018
(dp1019
g125
I20
sg126
(lp1020
sg128
I0
sg129
I00
sg130
S'suborder'
p1021
sg132
I0
sg133
S'33554'
p1022
sg134
Nsg135
(dp1023
S'Feliformia'
p1024
(iSAP.Taxonomy
TaxonomySummary
p1025
(dp1026
g125
I20
sg126
(lp1027
sg128
I0
sg129
I00
sg130
S'family'
p1028
sg132
I0
sg133
S'379583'
p1029
sg134
Nsg135
(dp1030
S'Viverridae'
p1031
(iSAP.Taxonomy
TaxonomySummary
p1032
(dp1033
g125
I1
sg126
(lp1034
sg128
I0
sg129
I00
sg130
S'subfamily'
p1035
sg132
I0
sg133
S'9673'
p1036
sg134
Nsg135
(dp1037
S'Viverrinae'
p1038
(iSAP.Taxonomy
TaxonomySummary
p1039
(dp1040
g125
I1
sg126
(lp1041
sg128
I0
sg129
I00
sg130
S'genus'
p1042
sg132
I0
sg133
S'219115'
p1043
sg134
Nsg135
(dp1044
S'Civettictis'
p1045
(iSAP.Taxonomy
TaxonomySummary
p1046
(dp1047
g125
I1
sg126
(lp1048
sg128
I0
sg129
I00
sg130
S'species'
p1049
sg132
I0
sg133
S'94185'
p1050
sg134
Nsg135
(dp1051
S'Civettictis civetta'
p1052
(iSAP.Taxonomy
TaxonomySummary
p1053
(dp1054
g125
I1
sg126
(lp1055
sg128
I0
sg129
I00
sg130
Nsg132
I0
sg133
S'94186'
p1056
sg134
Nsg135
(dp1057
sg214
I0
sg215
Nsg297
I0
sg298
I00
sbssg214
I0
sg215
Nsg297
I0
sg298
I00
sbssg214
I0
sg215
Nsg297
I0
sg298
I00
sbssg214
I0
sg215
Nsg297
I0
sg298
I00
sbsS'Felidae'
p1058
(iSAP.Taxonomy
TaxonomySummary
p1059
(dp1060
g125
I18
sg126
(lp1061
sg128
I0
sg129
I00
sg130
S'subfamily'
p1062
sg132
I0
sg133
S'9681'
p1063
sg134
Nsg135
(dp1064
S'Felinae'
p1065
(iSAP.Taxonomy
TaxonomySummary
p1066
(dp1067
g125
I12
sg126
(lp1068
sg128
I0
sg129
I00
sg130
S'genus'
p1069
sg132
I0
sg133
S'338152'
p1070
sg134
Nsg135
(dp1071
S'Felis'
p1072
(iSAP.Taxonomy
TaxonomySummary
p1073
(dp1074
g125
I3
sg126
(lp1075
sg128
I0
sg129
I00
sg130
S'species'
p1076
sg132
I0
sg133
S'9682'
p1077
sg134
Nsg135
(dp1078
S'Felis chaus'
p1079
(iSAP.Taxonomy
TaxonomySummary
p1080
(dp1081
g125
I1
sg126
(lp1082
sg128
I0
sg129
I00
sg130
Nsg132
I0
sg133
S'61376'
p1083
sg134
Nsg135
(dp1084
sg214
I0
sg215
Nsg297
I0
sg298
I00
sbsS'Felis catus'
p1085
(iSAP.Taxonomy
TaxonomySummary
p1086
(dp1087
g125
I1
sg126
(lp1088
sg128
I0
sg129
I00
sg130
Nsg132
I0
sg133
S'9685'
p1089
sg134
Nsg135
(dp1090
sg214
I0
sg215
Nsg297
I0
sg298
I00
sbsS'Felis silvestris'
p1091
(iSAP.Taxonomy
TaxonomySummary
p1092
(dp1093
g125
I1
sg126
(lp1094
sg128
I0
sg129
I00
sg130
Nsg132
I0
sg133
S'9683'
p1095
sg134
Nsg135
(dp1096
sg214
I0
sg215
Nsg297
I0
sg298
I00
sbssg214
I0
sg215
Nsg297
I0
sg298
I00
sbsS'Leptailurus'
p1097
(iSAP.Taxonomy
TaxonomySummary
p1098
(dp1099
g125
I1
sg126
(lp1100
sg128
I0
sg129
I00
sg130
S'species'
p1101
sg132
I0
sg133
S'61404'
p1102
sg134
Nsg135
(dp1103
S'Leptailurus serval'
p1104
(iSAP.Taxonomy
TaxonomySummary
p1105
(dp1106
g125
I1
sg126
(lp1107
sg128
I0
sg129
I00
sg130
Nsg132
I0
sg133
S'61405'
p1108
sg134
Nsg135
(dp1109
sg214
I0
sg215
Nsg297
I0
sg298
I00
sbssg214
I0
sg215
Nsg297
I0
sg298
I00
sbsS'Profelis'
p1110
(iSAP.Taxonomy
TaxonomySummary
p1111
(dp1112
g125
I1
sg126
(lp1113
sg128
I0
sg129
I00
sg130
S'species'
p1114
sg132
I0
sg133
S'61411'
p1115
sg134
Nsg135
(dp1116
S'Profelis aurata'
p1117
(iSAP.Taxonomy
TaxonomySummary
p1118
(dp1119
g125
I1
sg126
(lp1120
sg128
I0
sg129
I00
sg130
Nsg132
I0
sg133
S'61412'
p1121
sg134
Nsg135
(dp1122
sg214
I0
sg215
Nsg297
I0
sg298
I00
sbssg214
I0
sg215
Nsg297
I0
sg298
I00
sbsS'Catopuma'
p1123
(iSAP.Taxonomy
TaxonomySummary
p1124
(dp1125
g125
I1
sg126
(lp1126
sg128
I0
sg129
I00
sg130
S'species'
p1127
sg132
I0
sg133
S'61453'
p1128
sg134
Nsg135
(dp1129
S'Catopuma temminckii'
p1130
(iSAP.Taxonomy
TaxonomySummary
p1131
(dp1132
g125
I1
sg126
(lp1133
sg128
I0
sg129
I00
sg130
Nsg132
I0
sg133
S'61455'
p1134
sg134
Nsg135
(dp1135
sg214
I0
sg215
Nsg297
I0
sg298
I00
sbssg214
I0
sg215
Nsg297
I0
sg298
I00
sbsS'Lynx'
p1136
(iSAP.Taxonomy
TaxonomySummary
p1137
(dp1138
g125
I3
sg126
(lp1139
sg128
I0
sg129
I00
sg130
S'species'
p1140
sg132
I0
sg133
S'13124'
p1141
sg134
Nsg135
(dp1142
S'Lynx canadensis'
p1143
(iSAP.Taxonomy
TaxonomySummary
p1144
(dp1145
g125
I1
sg126
(lp1146
sg128
I0
sg129
I00
sg130
Nsg132
I0
sg133
S'61383'
p1147
sg134
Nsg135
(dp1148
sg214
I0
sg215
Nsg297
I0
sg298
I00
sbsS'Lynx rufus'
p1149
(iSAP.Taxonomy
TaxonomySummary
p1150
(dp1151
g125
I1
sg126
(lp1152
sg128
I0
sg129
I00
sg130
Nsg132
I0
sg133
S'61384'
p1153
sg134
Nsg135
(dp1154
sg214
I0
sg215
Nsg297
I0
sg298
I00
sbsS'Lynx lynx'
p1155
(iSAP.Taxonomy
TaxonomySummary
p1156
(dp1157
g125
I1
sg126
(lp1158
sg128
I0
sg129
I00
sg130
Nsg132
I0
sg133
S'13125'
p1159
sg134
Nsg135
(dp1160
sg214
I0
sg215
Nsg297
I0
sg298
I00
sbssg214
I0
sg215
Nsg297
I0
sg298
I00
sbsS'Caracal'
p1161
(iSAP.Taxonomy
TaxonomySummary
p1162
(dp1163
g125
I1
sg126
(lp1164
sg128
I0
sg129
I00
sg130
S'species'
p1165
sg132
I0
sg133
S'61393'
p1166
sg134
Nsg135
(dp1167
S'Caracal caracal'
p1168
(iSAP.Taxonomy
TaxonomySummary
p1169
(dp1170
g125
I1
sg126
(lp1171
sg128
I0
sg129
I00
sg130
Nsg132
I0
sg133
S'61394'
p1172
sg134
Nsg135
(dp1173
sg214
I0
sg215
Nsg297
I0
sg298
I00
sbssg214
I0
sg215
Nsg297
I0
sg298
I00
sbsS'Prionailurus'
p1174
(iSAP.Taxonomy
TaxonomySummary
p1175
(dp1176
g125
I2
sg126
(lp1177
sg128
I0
sg129
I00
sg130
S'species'
p1178
sg132
I0
sg133
S'37028'
p1179
sg134
Nsg135
(dp1180
S'Prionailurus bengalensis'
p1181
(iSAP.Taxonomy
TaxonomySummary
p1182
(dp1183
g125
I1
sg126
(lp1184
sg128
I0
sg129
I00
sg130
Nsg132
I0
sg133
S'37029'
p1185
sg134
Nsg135
(dp1186
sg214
I0
sg215
Nsg297
I0
sg298
I00
sbsS'Prionailurus viverrinus'
p1187
(iSAP.Taxonomy
TaxonomySummary
p1188
(dp1189
g125
I1
sg126
(lp1190
sg128
I0
sg129
I00
sg130
Nsg132
I0
sg133
S'61388'
p1191
sg134
Nsg135
(dp1192
sg214
I0
sg215
Nsg297
I0
sg298
I00
sbssg214
I0
sg215
Nsg297
I0
sg298
I00
sbssg214
I0
sg215
Nsg297
I0
sg298
I00
sbsS'Pantherinae'
p1193
(iSAP.Taxonomy
TaxonomySummary
p1194
(dp1195
g125
I6
sg126
(lp1196
sg128
I0
sg129
I00
sg130
S'genus'
p1197
sg132
I0
sg133
S'338153'
p1198
sg134
Nsg135
(dp1199
S'Panthera'
p1200
(iSAP.Taxonomy
TaxonomySummary
p1201
(dp1202
g125
I4
sg126
(lp1203
sg128
I0
sg129
I00
sg130
S'species'
p1204
sg132
I0
sg133
S'9688'
p1205
sg134
Nsg135
(dp1206
S'Panthera onca'
p1207
(iSAP.Taxonomy
TaxonomySummary
p1208
(dp1209
g125
I1
sg126
(lp1210
sg128
I0
sg129
I00
sg130
Nsg132
I0
sg133
S'9690'
p1211
sg134
Nsg135
(dp1212
sg214
I0
sg215
Nsg297
I0
sg298
I00
sbsS'Panthera pardus'
p1213
(iSAP.Taxonomy
TaxonomySummary
p1214
(dp1215
g125
I1
sg126
(lp1216
sg128
I0
sg129
I00
sg130
Nsg132
I0
sg133
S'9691'
p1217
sg134
Nsg135
(dp1218
sg214
I0
sg215
Nsg297
I0
sg298
I00
sbsS'Panthera leo'
p1219
(iSAP.Taxonomy
TaxonomySummary
p1220
(dp1221
g125
I1
sg126
(lp1222
sg128
I0
sg129
I00
sg130
Nsg132
I0
sg133
S'9689'
p1223
sg134
Nsg135
(dp1224
sg214
I0
sg215
Nsg297
I0
sg298
I00
sbsS'Panthera tigris'
p1225
(iSAP.Taxonomy
TaxonomySummary
p1226
(dp1227
g125
I1
sg126
(lp1228
sg128
I0
sg129
I00
sg130
Nsg132
I0
sg133
S'9694'
p1229
sg134
Nsg135
(dp1230
sg214
I0
sg215
Nsg297
I0
sg298
I00
sbssg214
I0
sg215
Nsg297
I0
sg298
I00
sbsS'Neofelis'
p1231
(iSAP.Taxonomy
TaxonomySummary
p1232
(dp1233
g125
I1
sg126
(lp1234
sg128
I0
sg129
I00
sg130
S'species'
p1235
sg132
I0
sg133
S'61451'
p1236
sg134
Nsg135
(dp1237
S'Neofelis nebulosa'
p1238
(iSAP.Taxonomy
TaxonomySummary
p1239
(dp1240
g125
I1
sg126
(lp1241
sg128
I0
sg129
I00
sg130
Nsg132
I0
sg133
S'61452'
p1242
sg134
Nsg135
(dp1243
sg214
I0
sg215
Nsg297
I0
sg298
I00
sbssg214
I0
sg215
Nsg297
I0
sg298
I00
sbsg82
(iSAP.Taxonomy
TaxonomySummary
p1244
(dp1245
g125
I1
sg126
(lp1246
sg128
I0
sg129
I00
sg130
g962
sg132
I0
sg133
g963
sg134
Nsg135
(dp1247
g91
(iSAP.Taxonomy
TaxonomySummary
p1248
(dp1249
g125
I1
sg126
(lp1250
sg128
I0
sg129
I00
sg130
Nsg132
I0
sg133
g968
sg134
Nsg135
(dp1251
sg214
I0
sg215
Nsg297
I0
sg298
I00
sbssg214
I0
sg215
Nsg297
I0
sg298
I00
sbssg214
I0
sg215
Nsg297
I0
sg298
I00
sbssg214
I0
sg215
Nsg297
I0
sg298
I00
sbsS'Herpestidae'
p1252
(iSAP.Taxonomy
TaxonomySummary
p1253
(dp1254
g125
I1
sg126
(lp1255
sg128
I0
sg129
I00
sg130
g1062
sg132
I0
sg133
S'9697'
p1256
sg134
Nsg135
(dp1257
S'placeHolder'
p1258
(iSAP.Taxonomy
TaxonomySummary
p1259
(dp1260
g125
I1
sg126
(lp1261
sg128
I0
sg129
I00
sg130
S'genus'
p1262
sg132
I0
sg133
g1256
sg134
Nsg135
(dp1263
S'Atilax'
p1264
(iSAP.Taxonomy
TaxonomySummary
p1265
(dp1266
g125
I1
sg126
(lp1267
sg128
I0
sg129
I00
sg130
S'species'
p1268
sg132
I0
sg133
S'210641'
p1269
sg134
Nsg135
(dp1270
S'Atilax paludinosus'
p1271
(iSAP.Taxonomy
TaxonomySummary
p1272
(dp1273
g125
I1
sg126
(lp1274
sg128
I0
sg129
I00
sg130
Nsg132
I0
sg133
S'210642'
p1275
sg134
Nsg135
(dp1276
sg214
I0
sg215
Nsg297
I0
sg298
I00
sbssg214
I0
sg215
Nsg297
I0
sg298
I00
sbssg214
I0
sg215
Nsg297
I0
sg298
I00
sbssg214
I0
sg215
Nsg297
I0
sg298
I00
sbssg214
I0
sg215
Nsg297
I0
sg298
I00
sbssg214
I0
sg215
Nsg297
I0
sg298
I00
sbssg214
I0
sg215
Nsg297
I0
sg298
I00
sbssg214
I0
sg215
Nsg297
I0
sg298
I00
sbssg214
I0
sg215
Nsg297
I0
sg298
I00
sbssg214
I0
sg215
Nsg297
I0
sg298
I00
sbssg214
I0
sg215
Nsg297
I0
sg298
I00
sbssg214
I0
sg215
Nsg297
I0
sg298
I00
sbssg214
I0
sg215
Nsg297
I0
sg298
I00
sbsg297
I0
sg298
I00
sbssg214
I1000
sg215
g970
sg297
I0
sg298
I00
sbssg214
I1000
sg215
g970
sg297
I0
sg298
I00
sbssg214
I1000
sg215
g970
sg297
I0
sg298
I00
sbssg214
I1000
sg215
g970
sg297
I0
sg298
I00
sbssg214
I1000
sg215
g970
sg297
I0
sg298
I00
sbssg214
I1000
sg215
g970
sg297
I0
sg298
I00
sbssg214
I1000
sg215
g970
sg297
I0
sg298
I00
sbssg214
I1000
sg215
g970
sg297
I0
sg298
I00
sbssg214
I1000
sg215
g970
sg297
I0
sg298
I00
sbssg214
I1000
sg215
g970
sg297
I0
sg298
I00
sbssg214
I1000
sg215
g970
sg297
I0
sg298
I00
sbssg214
I1000
sg215
g970
sg297
I0
sg298
I00
sbsg11
(iSAP.Taxonomy
TaxonomySummary
p1277
(dp1278
g125
I1000
sg126
(lp1279
sg128
I0
sg129
I00
sg130
S'superkingdom'
p1280
sg132
I0
sg133
Nsg134
Nsg135
(dp1281
S'Eukaryota'
p1282
(iSAP.Taxonomy
TaxonomySummary
p1283
(dp1284
g125
I1000
sg126
(lp1285
sg128
I0
sg129
I00
sg130
S'kingdom'
p1286
sg132
I0
sg133
S'2759'
p1287
sg134
Nsg135
(dp1288
S'Metazoa'
p1289
(iSAP.Taxonomy
TaxonomySummary
p1290
(dp1291
g125
I1000
sg126
(lp1292
sg128
I0
sg129
I00
sg130
S'phylum'
p1293
sg132
I0
sg133
S'33208'
p1294
sg134
Nsg135
(dp1295
S'Chordata'
p1296
(iSAP.Taxonomy
TaxonomySummary
p1297
(dp1298
g125
I1000
sg126
(lp1299
sg128
I0
sg129
I00
sg130
S'subphylum'
p1300
sg132
I0
sg133
S'7711'
p1301
sg134
Nsg135
(dp1302
S'Craniata'
p1303
(iSAP.Taxonomy
TaxonomySummary
p1304
(dp1305
g125
I1000
sg126
(lp1306
sg128
I0
sg129
I00
sg130
S'class'
p1307
sg132
I0
sg133
S'89593'
p1308
sg134
Nsg135
(dp1309
S'Mammalia'
p1310
(iSAP.Taxonomy
TaxonomySummary
p1311
(dp1312
g125
I1000
sg126
(lp1313
sg128
I0
sg129
I00
sg130
S'superorder'
p1314
sg132
I0
sg133
S'40674'
p1315
sg134
Nsg135
(dp1316
S'Laurasiatheria'
p1317
(iSAP.Taxonomy
TaxonomySummary
p1318
(dp1319
g125
I1000
sg126
(lp1320
sg128
I0
sg129
I00
sg130
S'order'
p1321
sg132
I0
sg133
S'314145'
p1322
sg134
Nsg135
(dp1323
S'Carnivora'
p1324
(iSAP.Taxonomy
TaxonomySummary
p1325
(dp1326
g125
I1000
sg126
(lp1327
sg128
I0
sg129
I00
sg130
S'suborder'
p1328
sg132
I0
sg133
S'33554'
p1329
sg134
Nsg135
(dp1330
S'Feliformia'
p1331
(iSAP.Taxonomy
TaxonomySummary
p1332
(dp1333
g125
I1000
sg126
(lp1334
sg128
I0
sg129
I00
sg130
S'family'
p1335
sg132
I0
sg133
S'379583'
p1336
sg134
Nsg135
(dp1337
S'Felidae'
p1338
(iSAP.Taxonomy
TaxonomySummary
p1339
(dp1340
g125
I1000
sg126
(lp1341
sg128
I0
sg129
I00
sg130
S'subfamily'
p1342
sg132
I0
sg133
S'9681'
p1343
sg134
Nsg135
(dp1344
S'Pantherinae'
p1345
(iSAP.Taxonomy
TaxonomySummary
p1346
(dp1347
g125
I1000
sg126
(lp1348
sg128
I0
sg129
I00
sg130
S'genus'
p1349
sg132
I0
sg133
S'338153'
p1350
sg134
Nsg135
(dp1351
S'Panthera'
p1352
(iSAP.Taxonomy
TaxonomySummary
p1353
(dp1354
g125
I1000
sg126
(lp1355
sg128
I0
sg129
I00
sg130
S'species'
p1356
sg132
I0
sg133
S'9688'
p1357
sg134
Nsg135
(dp1358
g97
(iSAP.Taxonomy
TaxonomySummary
p1359
(dp1360
g125
I1000
sg126
(lp1361
sg128
I0
sg129
I00
sg130
Nsg132
I0
sg133
S'9691'
p1362
sg134
Nsg135
(dp1363
sg214
I1000
sg215
(iSAP.Taxonomy
TaxonomySummary
p1364
(dp1365
g125
I19
sg126
(lp1366
sg128
I0
sg129
I00
sg130
S'superkingdom'
p1367
sg132
I0
sg133
Nsg134
Nsg135
(dp1368
S'Eukaryota'
p1369
(iSAP.Taxonomy
TaxonomySummary
p1370
(dp1371
g125
I19
sg126
(lp1372
sg128
I0
sg129
I00
sg130
S'kingdom'
p1373
sg132
I0
sg133
S'2759'
p1374
sg134
Nsg135
(dp1375
S'Metazoa'
p1376
(iSAP.Taxonomy
TaxonomySummary
p1377
(dp1378
g125
I19
sg126
(lp1379
sg128
I0
sg129
I00
sg130
S'phylum'
p1380
sg132
I0
sg133
S'33208'
p1381
sg134
Nsg135
(dp1382
S'Chordata'
p1383
(iSAP.Taxonomy
TaxonomySummary
p1384
(dp1385
g125
I19
sg126
(lp1386
sg128
I0
sg129
I00
sg130
S'subphylum'
p1387
sg132
I0
sg133
S'7711'
p1388
sg134
Nsg135
(dp1389
S'Craniata'
p1390
(iSAP.Taxonomy
TaxonomySummary
p1391
(dp1392
g125
I19
sg126
(lp1393
sg128
I0
sg129
I00
sg130
S'class'
p1394
sg132
I0
sg133
S'89593'
p1395
sg134
Nsg135
(dp1396
S'Mammalia'
p1397
(iSAP.Taxonomy
TaxonomySummary
p1398
(dp1399
g125
I19
sg126
(lp1400
sg128
I0
sg129
I00
sg130
S'superorder'
p1401
sg132
I0
sg133
S'40674'
p1402
sg134
Nsg135
(dp1403
S'Euarchontoglires'
p1404
(iSAP.Taxonomy
TaxonomySummary
p1405
(dp1406
g125
I1
sg126
(lp1407
sg128
I0
sg129
I00
sg130
S'order'
p1408
sg132
I0
sg133
S'314146'
p1409
sg134
Nsg135
(dp1410
S'Rodentia'
p1411
(iSAP.Taxonomy
TaxonomySummary
p1412
(dp1413
g125
I1
sg126
(lp1414
sg128
I0
sg129
I00
sg130
S'suborder'
p1415
sg132
I0
sg133
S'9989'
p1416
sg134
Nsg135
(dp1417
S'Sciurognathi'
p1418
(iSAP.Taxonomy
TaxonomySummary
p1419
(dp1420
g125
I1
sg126
(lp1421
sg128
I0
sg129
I00
sg130
S'family'
p1422
sg132
I0
sg133
S'33553'
p1423
sg134
Nsg135
(dp1424
S'Muridae'
p1425
(iSAP.Taxonomy
TaxonomySummary
p1426
(dp1427
g125
I1
sg126
(lp1428
sg128
I0
sg129
I00
sg130
S'subfamily'
p1429
sg132
I0
sg133
S'10066'
p1430
sg134
Nsg135
(dp1431
S'Murinae'
p1432
(iSAP.Taxonomy
TaxonomySummary
p1433
(dp1434
g125
I1
sg126
(lp1435
sg128
I0
sg129
I00
sg130
S'genus'
p1436
sg132
I0
sg133
S'39107'
p1437
sg134
Nsg135
(dp1438
S'Berylmys'
p1439
(iSAP.Taxonomy
TaxonomySummary
p1440
(dp1441
g125
I1
sg126
(lp1442
sg128
I0
sg129
I00
sg130
S'species'
p1443
sg132
I0
sg133
S'83758'
p1444
sg134
Nsg135
(dp1445
S'Berylmys berdmorei'
p1446
(iSAP.Taxonomy
TaxonomySummary
p1447
(dp1448
g125
I1
sg126
(lp1449
sg128
I0
sg129
I00
sg130
Nsg132
I0
sg133
S'595394'
p1450
sg134
Nsg135
(dp1451
sg214
I0
sg215
Nsg297
I0
sg298
I00
sbssg214
I0
sg215
Nsg297
I0
sg298
I00
sbssg214
I0
sg215
Nsg297
I0
sg298
I00
sbssg214
I0
sg215
Nsg297
I0
sg298
I00
sbssg214
I0
sg215
Nsg297
I0
sg298
I00
sbssg214
I0
sg215
Nsg297
I0
sg298
I00
sbssg214
I0
sg215
Nsg297
I0
sg298
I00
sbsS'Laurasiatheria'
p1452
(iSAP.Taxonomy
TaxonomySummary
p1453
(dp1454
g125
I18
sg126
(lp1455
sg128
I0
sg129
I00
sg130
S'order'
p1456
sg132
I0
sg133
S'314145'
p1457
sg134
Nsg135
(dp1458
S'Carnivora'
p1459
(iSAP.Taxonomy
TaxonomySummary
p1460
(dp1461
g125
I18
sg126
(lp1462
sg128
I0
sg129
I00
sg130
S'suborder'
p1463
sg132
I0
sg133
S'33554'
p1464
sg134
Nsg135
(dp1465
S'Feliformia'
p1466
(iSAP.Taxonomy
TaxonomySummary
p1467
(dp1468
g125
I18
sg126
(lp1469
sg128
I0
sg129
I00
sg130
S'family'
p1470
sg132
I0
sg133
S'379583'
p1471
sg134
Nsg135
(dp1472
S'Felidae'
p1473
(iSAP.Taxonomy
TaxonomySummary
p1474
(dp1475
g125
I18
sg126
(lp1476
sg128
I0
sg129
I00
sg130
S'subfamily'
p1477
sg132
I0
sg133
S'9681'
p1478
sg134
Nsg135
(dp1479
S'Felinae'
p1480
(iSAP.Taxonomy
TaxonomySummary
p1481
(dp1482
g125
I12
sg126
(lp1483
sg128
I0
sg129
I00
sg130
S'genus'
p1484
sg132
I0
sg133
S'338152'
p1485
sg134
Nsg135
(dp1486
S'Felis'
p1487
(iSAP.Taxonomy
TaxonomySummary
p1488
(dp1489
g125
I3
sg126
(lp1490
sg128
I0
sg129
I00
sg130
S'species'
p1491
sg132
I0
sg133
S'9682'
p1492
sg134
Nsg135
(dp1493
S'Felis chaus'
p1494
(iSAP.Taxonomy
TaxonomySummary
p1495
(dp1496
g125
I1
sg126
(lp1497
sg128
I0
sg129
I00
sg130
Nsg132
I0
sg133
S'61376'
p1498
sg134
Nsg135
(dp1499
sg214
I0
sg215
Nsg297
I0
sg298
I00
sbsS'Felis catus'
p1500
(iSAP.Taxonomy
TaxonomySummary
p1501
(dp1502
g125
I1
sg126
(lp1503
sg128
I0
sg129
I00
sg130
Nsg132
I0
sg133
S'9685'
p1504
sg134
Nsg135
(dp1505
sg214
I0
sg215
Nsg297
I0
sg298
I00
sbsS'Felis silvestris'
p1506
(iSAP.Taxonomy
TaxonomySummary
p1507
(dp1508
g125
I1
sg126
(lp1509
sg128
I0
sg129
I00
sg130
Nsg132
I0
sg133
S'9683'
p1510
sg134
Nsg135
(dp1511
sg214
I0
sg215
Nsg297
I0
sg298
I00
sbssg214
I0
sg215
Nsg297
I0
sg298
I00
sbsS'Leptailurus'
p1512
(iSAP.Taxonomy
TaxonomySummary
p1513
(dp1514
g125
I1
sg126
(lp1515
sg128
I0
sg129
I00
sg130
S'species'
p1516
sg132
I0
sg133
S'61404'
p1517
sg134
Nsg135
(dp1518
S'Leptailurus serval'
p1519
(iSAP.Taxonomy
TaxonomySummary
p1520
(dp1521
g125
I1
sg126
(lp1522
sg128
I0
sg129
I00
sg130
Nsg132
I0
sg133
S'61405'
p1523
sg134
Nsg135
(dp1524
sg214
I0
sg215
Nsg297
I0
sg298
I00
sbssg214
I0
sg215
Nsg297
I0
sg298
I00
sbsS'Profelis'
p1525
(iSAP.Taxonomy
TaxonomySummary
p1526
(dp1527
g125
I1
sg126
(lp1528
sg128
I0
sg129
I00
sg130
S'species'
p1529
sg132
I0
sg133
S'61411'
p1530
sg134
Nsg135
(dp1531
S'Profelis aurata'
p1532
(iSAP.Taxonomy
TaxonomySummary
p1533
(dp1534
g125
I1
sg126
(lp1535
sg128
I0
sg129
I00
sg130
Nsg132
I0
sg133
S'61412'
p1536
sg134
Nsg135
(dp1537
sg214
I0
sg215
Nsg297
I0
sg298
I00
sbssg214
I0
sg215
Nsg297
I0
sg298
I00
sbsS'Catopuma'
p1538
(iSAP.Taxonomy
TaxonomySummary
p1539
(dp1540
g125
I1
sg126
(lp1541
sg128
I0
sg129
I00
sg130
S'species'
p1542
sg132
I0
sg133
S'61453'
p1543
sg134
Nsg135
(dp1544
S'Catopuma temminckii'
p1545
(iSAP.Taxonomy
TaxonomySummary
p1546
(dp1547
g125
I1
sg126
(lp1548
sg128
I0
sg129
I00
sg130
Nsg132
I0
sg133
S'61455'
p1549
sg134
Nsg135
(dp1550
sg214
I0
sg215
Nsg297
I0
sg298
I00
sbssg214
I0
sg215
Nsg297
I0
sg298
I00
sbsS'Lynx'
p1551
(iSAP.Taxonomy
TaxonomySummary
p1552
(dp1553
g125
I3
sg126
(lp1554
sg128
I0
sg129
I00
sg130
S'species'
p1555
sg132
I0
sg133
S'13124'
p1556
sg134
Nsg135
(dp1557
S'Lynx canadensis'
p1558
(iSAP.Taxonomy
TaxonomySummary
p1559
(dp1560
g125
I1
sg126
(lp1561
sg128
I0
sg129
I00
sg130
Nsg132
I0
sg133
S'61383'
p1562
sg134
Nsg135
(dp1563
sg214
I0
sg215
Nsg297
I0
sg298
I00
sbsS'Lynx rufus'
p1564
(iSAP.Taxonomy
TaxonomySummary
p1565
(dp1566
g125
I1
sg126
(lp1567
sg128
I0
sg129
I00
sg130
Nsg132
I0
sg133
S'61384'
p1568
sg134
Nsg135
(dp1569
sg214
I0
sg215
Nsg297
I0
sg298
I00
sbsS'Lynx lynx'
p1570
(iSAP.Taxonomy
TaxonomySummary
p1571
(dp1572
g125
I1
sg126
(lp1573
sg128
I0
sg129
I00
sg130
Nsg132
I0
sg133
S'13125'
p1574
sg134
Nsg135
(dp1575
sg214
I0
sg215
Nsg297
I0
sg298
I00
sbssg214
I0
sg215
Nsg297
I0
sg298
I00
sbsS'Prionailurus'
p1576
(iSAP.Taxonomy
TaxonomySummary
p1577
(dp1578
g125
I3
sg126
(lp1579
sg128
I0
sg129
I00
sg130
S'species'
p1580
sg132
I0
sg133
S'37028'
p1581
sg134
Nsg135
(dp1582
S'Prionailurus planiceps'
p1583
(iSAP.Taxonomy
TaxonomySummary
p1584
(dp1585
g125
I1
sg126
(lp1586
sg128
I0
sg129
I00
sg130
Nsg132
I0
sg133
S'61403'
p1587
sg134
Nsg135
(dp1588
sg214
I0
sg215
Nsg297
I0
sg298
I00
sbsS'Prionailurus bengalensis'
p1589
(iSAP.Taxonomy
TaxonomySummary
p1590
(dp1591
g125
I1
sg126
(lp1592
sg128
I0
sg129
I00
sg130
Nsg132
I0
sg133
S'37029'
p1593
sg134
Nsg135
(dp1594
sg214
I0
sg215
Nsg297
I0
sg298
I00
sbsS'Prionailurus viverrinus'
p1595
(iSAP.Taxonomy
TaxonomySummary
p1596
(dp1597
g125
I1
sg126
(lp1598
sg128
I0
sg129
I00
sg130
Nsg132
I0
sg133
S'61388'
p1599
sg134
Nsg135
(dp1600
sg214
I0
sg215
Nsg297
I0
sg298
I00
sbssg214
I0
sg215
Nsg297
I0
sg298
I00
sbssg214
I0
sg215
Nsg297
I0
sg298
I00
sbsg1345
(iSAP.Taxonomy
TaxonomySummary
p1601
(dp1602
g125
I6
sg126
(lp1603
sg128
I0
sg129
I00
sg130
g1349
sg132
I0
sg133
g1350
sg134
Nsg135
(dp1604
g1352
(iSAP.Taxonomy
TaxonomySummary
p1605
(dp1606
g125
I4
sg126
(lp1607
sg128
I0
sg129
I00
sg130
g1356
sg132
I0
sg133
g1357
sg134
Nsg135
(dp1608
S'Panthera onca'
p1609
(iSAP.Taxonomy
TaxonomySummary
p1610
(dp1611
g125
I1
sg126
(lp1612
sg128
I0
sg129
I00
sg130
Nsg132
I0
sg133
S'9690'
p1613
sg134
Nsg135
(dp1614
sg214
I0
sg215
Nsg297
I0
sg298
I00
sbsg97
(iSAP.Taxonomy
TaxonomySummary
p1615
(dp1616
g125
I1
sg126
(lp1617
sg128
I0
sg129
I00
sg130
Nsg132
I0
sg133
g1362
sg134
Nsg135
(dp1618
sg214
I0
sg215
Nsg297
I0
sg298
I00
sbsS'Panthera leo'
p1619
(iSAP.Taxonomy
TaxonomySummary
p1620
(dp1621
g125
I1
sg126
(lp1622
sg128
I0
sg129
I00
sg130
Nsg132
I0
sg133
S'9689'
p1623
sg134
Nsg135
(dp1624
sg214
I0
sg215
Nsg297
I0
sg298
I00
sbsS'Panthera tigris'
p1625
(iSAP.Taxonomy
TaxonomySummary
p1626
(dp1627
g125
I1
sg126
(lp1628
sg128
I0
sg129
I00
sg130
Nsg132
I0
sg133
S'9694'
p1629
sg134
Nsg135
(dp1630
sg214
I0
sg215
Nsg297
I0
sg298
I00
sbssg214
I0
sg215
Nsg297
I0
sg298
I00
sbsS'Neofelis'
p1631
(iSAP.Taxonomy
TaxonomySummary
p1632
(dp1633
g125
I1
sg126
(lp1634
sg128
I0
sg129
I00
sg130
S'species'
p1635
sg132
I0
sg133
S'61451'
p1636
sg134
Nsg135
(dp1637
S'Neofelis nebulosa'
p1638
(iSAP.Taxonomy
TaxonomySummary
p1639
(dp1640
g125
I1
sg126
(lp1641
sg128
I0
sg129
I00
sg130
Nsg132
I0
sg133
S'61452'
p1642
sg134
Nsg135
(dp1643
sg214
I0
sg215
Nsg297
I0
sg298
I00
sbssg214
I0
sg215
Nsg297
I0
sg298
I00
sbsS'Uncia'
p1644
(iSAP.Taxonomy
TaxonomySummary
p1645
(dp1646
g125
I1
sg126
(lp1647
sg128
I0
sg129
I00
sg130
S'species'
p1648
sg132
I0
sg133
S'29063'
p1649
sg134
Nsg135
(dp1650
S'Uncia uncia'
p1651
(iSAP.Taxonomy
TaxonomySummary
p1652
(dp1653
g125
I1
sg126
(lp1654
sg128
I0
sg129
I00
sg130
Nsg132
I0
sg133
S'29064'
p1655
sg134
Nsg135
(dp1656
sg214
I0
sg215
Nsg297
I0
sg298
I00
sbssg214
I0
sg215
Nsg297
I0
sg298
I00
sbssg214
I0
sg215
Nsg297
I0
sg298
I00
sbssg214
I0
sg215
Nsg297
I0
sg298
I00
sbssg214
I0
sg215
Nsg297
I0
sg298
I00
sbssg214
I0
sg215
Nsg297
I0
sg298
I00
sbssg214
I0
sg215
Nsg297
I0
sg298
I00
sbssg214
I0
sg215
Nsg297
I0
sg298
I00
sbssg214
I0
sg215
Nsg297
I0
sg298
I00
sbssg214
I0
sg215
Nsg297
I0
sg298
I00
sbssg214
I0
sg215
Nsg297
I0
sg298
I00
sbssg214
I0
sg215
Nsg297
I0
sg298
I00
sbssg214
I0
sg215
Nsg297
I0
sg298
I00
sbsg297
I0
sg298
I00
sbssg214
I1000
sg215
g1364
sg297
I0
sg298
I00
sbssg214
I1000
sg215
g1364
sg297
I0
sg298
I00
sbssg214
I1000
sg215
g1364
sg297
I0
sg298
I00
sbssg214
I1000
sg215
g1364
sg297
I0
sg298
I00
sbssg214
I1000
sg215
g1364
sg297
I0
sg298
I00
sbssg214
I1000
sg215
g1364
sg297
I0
sg298
I00
sbssg214
I1000
sg215
g1364
sg297
I0
sg298
I00
sbssg214
I1000
sg215
g1364
sg297
I0
sg298
I00
sbssg214
I1000
sg215
g1364
sg297
I0
sg298
I00
sbssg214
I1000
sg215
g1364
sg297
I0
sg298
I00
sbssg214
I1000
sg215
g1364
sg297
I0
sg298
I00
sbssg214
I1000
sg215
g1364
sg297
I0
sg298
I00
sbssS'alignmentFiles'
p1657
(lp1658
V/Users/kasper/Desktop/sapserver2/static/user_projects/example_Y7IQXN/alignmentcache/exampleY7IQXNshow_327419798.nex
p1659
aV/Users/kasper/Desktop/sapserver2/static/user_projects/example_Y7IQXN/alignmentcache/exampleY7IQXNshow_327419598.nex
p1660
aV/Users/kasper/Desktop/sapserver2/static/user_projects/example_Y7IQXN/alignmentcache/exampleY7IQXNshow_327419384.nex
p1661
aV/Users/kasper/Desktop/sapserver2/static/user_projects/example_Y7IQXN/alignmentcache/exampleY7IQXNshow_327419596.nex
p1662
asS'inputQueryNames'
p1663
(dp1664
VexampleY7IQXNshow
p1665
(dp1666
S'695275626'
p1667
I01
sS'327419598'
p1668
I01
sS'327419798'
p1669
I01
sS'327419384'
p1670
I01
sS'327419596'
p1671
I01
ssss.